
Master.elf:     file format elf32-avr

Sections:
Idx Name          Size      VMA       LMA       File off  Algn
  0 .text         00002ad8  00000000  00000000  00000094  2**1
                  CONTENTS, ALLOC, LOAD, READONLY, CODE
  1 .data         00000150  00800060  00002ad8  00002b6c  2**0
                  CONTENTS, ALLOC, LOAD, DATA
  2 .bss          0000001f  008001b0  008001b0  00002cbc  2**0
                  ALLOC
  3 .debug_aranges 00000060  00000000  00000000  00002cbc  2**0
                  CONTENTS, READONLY, DEBUGGING
  4 .debug_pubnames 00000080  00000000  00000000  00002d1c  2**0
                  CONTENTS, READONLY, DEBUGGING
  5 .debug_info   0000109d  00000000  00000000  00002d9c  2**0
                  CONTENTS, READONLY, DEBUGGING
  6 .debug_abbrev 00000469  00000000  00000000  00003e39  2**0
                  CONTENTS, READONLY, DEBUGGING
  7 .debug_line   0000055b  00000000  00000000  000042a2  2**0
                  CONTENTS, READONLY, DEBUGGING
  8 .debug_frame  00000060  00000000  00000000  00004800  2**2
                  CONTENTS, READONLY, DEBUGGING
  9 .debug_str    0000016a  00000000  00000000  00004860  2**0
                  CONTENTS, READONLY, DEBUGGING
 10 .debug_loc    00001a1e  00000000  00000000  000049ca  2**0
                  CONTENTS, READONLY, DEBUGGING
 11 .debug_ranges 00000030  00000000  00000000  000063e8  2**0
                  CONTENTS, READONLY, DEBUGGING

Disassembly of section .text:

00000000 <__vectors>:
       0:	0c 94 2a 00 	jmp	0x54	; 0x54 <__ctors_end>
       4:	0c 94 b6 0e 	jmp	0x1d6c	; 0x1d6c <__vector_1>
       8:	0c 94 dd 0e 	jmp	0x1dba	; 0x1dba <__vector_2>
       c:	0c 94 e3 0e 	jmp	0x1dc6	; 0x1dc6 <__vector_3>
      10:	0c 94 47 00 	jmp	0x8e	; 0x8e <__bad_interrupt>
      14:	0c 94 47 00 	jmp	0x8e	; 0x8e <__bad_interrupt>
      18:	0c 94 47 00 	jmp	0x8e	; 0x8e <__bad_interrupt>
      1c:	0c 94 47 00 	jmp	0x8e	; 0x8e <__bad_interrupt>
      20:	0c 94 47 00 	jmp	0x8e	; 0x8e <__bad_interrupt>
      24:	0c 94 47 00 	jmp	0x8e	; 0x8e <__bad_interrupt>
      28:	0c 94 0a 0e 	jmp	0x1c14	; 0x1c14 <__vector_10>
      2c:	0c 94 36 0e 	jmp	0x1c6c	; 0x1c6c <__vector_11>
      30:	0c 94 47 00 	jmp	0x8e	; 0x8e <__bad_interrupt>
      34:	0c 94 47 00 	jmp	0x8e	; 0x8e <__bad_interrupt>
      38:	0c 94 47 00 	jmp	0x8e	; 0x8e <__bad_interrupt>
      3c:	0c 94 47 00 	jmp	0x8e	; 0x8e <__bad_interrupt>
      40:	0c 94 47 00 	jmp	0x8e	; 0x8e <__bad_interrupt>
      44:	0c 94 47 00 	jmp	0x8e	; 0x8e <__bad_interrupt>
      48:	0c 94 47 00 	jmp	0x8e	; 0x8e <__bad_interrupt>
      4c:	0c 94 47 00 	jmp	0x8e	; 0x8e <__bad_interrupt>
      50:	0c 94 47 00 	jmp	0x8e	; 0x8e <__bad_interrupt>

00000054 <__ctors_end>:
      54:	11 24       	eor	r1, r1
      56:	1f be       	out	0x3f, r1	; 63
      58:	cf e5       	ldi	r28, 0x5F	; 95
      5a:	d8 e0       	ldi	r29, 0x08	; 8
      5c:	de bf       	out	0x3e, r29	; 62
      5e:	cd bf       	out	0x3d, r28	; 61

00000060 <__do_copy_data>:
      60:	11 e0       	ldi	r17, 0x01	; 1
      62:	a0 e6       	ldi	r26, 0x60	; 96
      64:	b0 e0       	ldi	r27, 0x00	; 0
      66:	e8 ed       	ldi	r30, 0xD8	; 216
      68:	fa e2       	ldi	r31, 0x2A	; 42
      6a:	02 c0       	rjmp	.+4      	; 0x70 <.do_copy_data_start>

0000006c <.do_copy_data_loop>:
      6c:	05 90       	lpm	r0, Z+
      6e:	0d 92       	st	X+, r0

00000070 <.do_copy_data_start>:
      70:	a0 3b       	cpi	r26, 0xB0	; 176
      72:	b1 07       	cpc	r27, r17
      74:	d9 f7       	brne	.-10     	; 0x6c <.do_copy_data_loop>

00000076 <__do_clear_bss>:
      76:	11 e0       	ldi	r17, 0x01	; 1
      78:	a0 eb       	ldi	r26, 0xB0	; 176
      7a:	b1 e0       	ldi	r27, 0x01	; 1
      7c:	01 c0       	rjmp	.+2      	; 0x80 <.do_clear_bss_start>

0000007e <.do_clear_bss_loop>:
      7e:	1d 92       	st	X+, r1

00000080 <.do_clear_bss_start>:
      80:	af 3c       	cpi	r26, 0xCF	; 207
      82:	b1 07       	cpc	r27, r17
      84:	e1 f7       	brne	.-8      	; 0x7e <.do_clear_bss_loop>
      86:	0e 94 cb 14 	call	0x2996	; 0x2996 <main>
      8a:	0c 94 6a 15 	jmp	0x2ad4	; 0x2ad4 <_exit>

0000008e <__bad_interrupt>:
      8e:	0c 94 00 00 	jmp	0	; 0x0 <__vectors>

00000092 <__ashldi3>:
      92:	ef 92       	push	r14
      94:	ff 92       	push	r15
      96:	0f 93       	push	r16
      98:	df 93       	push	r29
      9a:	cf 93       	push	r28
      9c:	cd b7       	in	r28, 0x3d	; 61
      9e:	de b7       	in	r29, 0x3e	; 62
      a0:	60 97       	sbiw	r28, 0x10	; 16
      a2:	0f b6       	in	r0, 0x3f	; 63
      a4:	f8 94       	cli
      a6:	de bf       	out	0x3e, r29	; 62
      a8:	0f be       	out	0x3f, r0	; 63
      aa:	cd bf       	out	0x3d, r28	; 61
      ac:	a8 2f       	mov	r26, r24
      ae:	00 23       	and	r16, r16
      b0:	09 f4       	brne	.+2      	; 0xb4 <__ashldi3+0x22>
      b2:	61 c0       	rjmp	.+194    	; 0x176 <__ashldi3+0xe4>
      b4:	7e 01       	movw	r14, r28
      b6:	08 94       	sec
      b8:	e1 1c       	adc	r14, r1
      ba:	f1 1c       	adc	r15, r1
      bc:	88 e0       	ldi	r24, 0x08	; 8
      be:	f7 01       	movw	r30, r14
      c0:	11 92       	st	Z+, r1
      c2:	8a 95       	dec	r24
      c4:	e9 f7       	brne	.-6      	; 0xc0 <__ashldi3+0x2e>
      c6:	29 83       	std	Y+1, r18	; 0x01
      c8:	3a 83       	std	Y+2, r19	; 0x02
      ca:	4b 83       	std	Y+3, r20	; 0x03
      cc:	5c 83       	std	Y+4, r21	; 0x04
      ce:	6d 83       	std	Y+5, r22	; 0x05
      d0:	7e 83       	std	Y+6, r23	; 0x06
      d2:	af 83       	std	Y+7, r26	; 0x07
      d4:	98 87       	std	Y+8, r25	; 0x08
      d6:	80 e2       	ldi	r24, 0x20	; 32
      d8:	80 1b       	sub	r24, r16
      da:	e8 2f       	mov	r30, r24
      dc:	ff 27       	eor	r31, r31
      de:	e7 fd       	sbrc	r30, 7
      e0:	f0 95       	com	r31
      e2:	49 81       	ldd	r20, Y+1	; 0x01
      e4:	5a 81       	ldd	r21, Y+2	; 0x02
      e6:	6b 81       	ldd	r22, Y+3	; 0x03
      e8:	7c 81       	ldd	r23, Y+4	; 0x04
      ea:	18 16       	cp	r1, r24
      ec:	84 f0       	brlt	.+32     	; 0x10e <__ashldi3+0x7c>
      ee:	19 86       	std	Y+9, r1	; 0x09
      f0:	1a 86       	std	Y+10, r1	; 0x0a
      f2:	1b 86       	std	Y+11, r1	; 0x0b
      f4:	1c 86       	std	Y+12, r1	; 0x0c
      f6:	88 27       	eor	r24, r24
      f8:	99 27       	eor	r25, r25
      fa:	8e 1b       	sub	r24, r30
      fc:	9f 0b       	sbc	r25, r31
      fe:	04 c0       	rjmp	.+8      	; 0x108 <__ashldi3+0x76>
     100:	44 0f       	add	r20, r20
     102:	55 1f       	adc	r21, r21
     104:	66 1f       	adc	r22, r22
     106:	77 1f       	adc	r23, r23
     108:	8a 95       	dec	r24
     10a:	d2 f7       	brpl	.-12     	; 0x100 <__ashldi3+0x6e>
     10c:	28 c0       	rjmp	.+80     	; 0x15e <__ashldi3+0xcc>
     10e:	20 2f       	mov	r18, r16
     110:	33 27       	eor	r19, r19
     112:	27 fd       	sbrc	r18, 7
     114:	30 95       	com	r19
     116:	db 01       	movw	r26, r22
     118:	ca 01       	movw	r24, r20
     11a:	02 2e       	mov	r0, r18
     11c:	04 c0       	rjmp	.+8      	; 0x126 <__ashldi3+0x94>
     11e:	88 0f       	add	r24, r24
     120:	99 1f       	adc	r25, r25
     122:	aa 1f       	adc	r26, r26
     124:	bb 1f       	adc	r27, r27
     126:	0a 94       	dec	r0
     128:	d2 f7       	brpl	.-12     	; 0x11e <__ashldi3+0x8c>
     12a:	89 87       	std	Y+9, r24	; 0x09
     12c:	9a 87       	std	Y+10, r25	; 0x0a
     12e:	ab 87       	std	Y+11, r26	; 0x0b
     130:	bc 87       	std	Y+12, r27	; 0x0c
     132:	04 c0       	rjmp	.+8      	; 0x13c <__ashldi3+0xaa>
     134:	76 95       	lsr	r23
     136:	67 95       	ror	r22
     138:	57 95       	ror	r21
     13a:	47 95       	ror	r20
     13c:	ea 95       	dec	r30
     13e:	d2 f7       	brpl	.-12     	; 0x134 <__ashldi3+0xa2>
     140:	8d 81       	ldd	r24, Y+5	; 0x05
     142:	9e 81       	ldd	r25, Y+6	; 0x06
     144:	af 81       	ldd	r26, Y+7	; 0x07
     146:	b8 85       	ldd	r27, Y+8	; 0x08
     148:	04 c0       	rjmp	.+8      	; 0x152 <__ashldi3+0xc0>
     14a:	88 0f       	add	r24, r24
     14c:	99 1f       	adc	r25, r25
     14e:	aa 1f       	adc	r26, r26
     150:	bb 1f       	adc	r27, r27
     152:	2a 95       	dec	r18
     154:	d2 f7       	brpl	.-12     	; 0x14a <__ashldi3+0xb8>
     156:	48 2b       	or	r20, r24
     158:	59 2b       	or	r21, r25
     15a:	6a 2b       	or	r22, r26
     15c:	7b 2b       	or	r23, r27
     15e:	4d 87       	std	Y+13, r20	; 0x0d
     160:	5e 87       	std	Y+14, r21	; 0x0e
     162:	6f 87       	std	Y+15, r22	; 0x0f
     164:	78 8b       	std	Y+16, r23	; 0x10
     166:	29 85       	ldd	r18, Y+9	; 0x09
     168:	3a 85       	ldd	r19, Y+10	; 0x0a
     16a:	4b 85       	ldd	r20, Y+11	; 0x0b
     16c:	5c 85       	ldd	r21, Y+12	; 0x0c
     16e:	6d 85       	ldd	r22, Y+13	; 0x0d
     170:	7e 85       	ldd	r23, Y+14	; 0x0e
     172:	af 85       	ldd	r26, Y+15	; 0x0f
     174:	98 89       	ldd	r25, Y+16	; 0x10
     176:	8a 2f       	mov	r24, r26
     178:	60 96       	adiw	r28, 0x10	; 16
     17a:	0f b6       	in	r0, 0x3f	; 63
     17c:	f8 94       	cli
     17e:	de bf       	out	0x3e, r29	; 62
     180:	0f be       	out	0x3f, r0	; 63
     182:	cd bf       	out	0x3d, r28	; 61
     184:	cf 91       	pop	r28
     186:	df 91       	pop	r29
     188:	0f 91       	pop	r16
     18a:	ff 90       	pop	r15
     18c:	ef 90       	pop	r14
     18e:	08 95       	ret

00000190 <__udivdi3>:
     190:	ae e5       	ldi	r26, 0x5E	; 94
     192:	b0 e0       	ldi	r27, 0x00	; 0
     194:	ee ec       	ldi	r30, 0xCE	; 206
     196:	f0 e0       	ldi	r31, 0x00	; 0
     198:	0c 94 33 15 	jmp	0x2a66	; 0x2a66 <__prologue_saves__>
     19c:	a8 e0       	ldi	r26, 0x08	; 8
     19e:	4e 01       	movw	r8, r28
     1a0:	08 94       	sec
     1a2:	81 1c       	adc	r8, r1
     1a4:	91 1c       	adc	r9, r1
     1a6:	f4 01       	movw	r30, r8
     1a8:	6a 2e       	mov	r6, r26
     1aa:	11 92       	st	Z+, r1
     1ac:	6a 94       	dec	r6
     1ae:	e9 f7       	brne	.-6      	; 0x1aa <__udivdi3+0x1a>
     1b0:	29 83       	std	Y+1, r18	; 0x01
     1b2:	3a 83       	std	Y+2, r19	; 0x02
     1b4:	4b 83       	std	Y+3, r20	; 0x03
     1b6:	5c 83       	std	Y+4, r21	; 0x04
     1b8:	6d 83       	std	Y+5, r22	; 0x05
     1ba:	7e 83       	std	Y+6, r23	; 0x06
     1bc:	8f 83       	std	Y+7, r24	; 0x07
     1be:	98 87       	std	Y+8, r25	; 0x08
     1c0:	ce 01       	movw	r24, r28
     1c2:	09 96       	adiw	r24, 0x09	; 9
     1c4:	fc 01       	movw	r30, r24
     1c6:	11 92       	st	Z+, r1
     1c8:	aa 95       	dec	r26
     1ca:	e9 f7       	brne	.-6      	; 0x1c6 <__udivdi3+0x36>
     1cc:	a9 86       	std	Y+9, r10	; 0x09
     1ce:	ba 86       	std	Y+10, r11	; 0x0a
     1d0:	cb 86       	std	Y+11, r12	; 0x0b
     1d2:	dc 86       	std	Y+12, r13	; 0x0c
     1d4:	ed 86       	std	Y+13, r14	; 0x0d
     1d6:	fe 86       	std	Y+14, r15	; 0x0e
     1d8:	0f 87       	std	Y+15, r16	; 0x0f
     1da:	18 8b       	std	Y+16, r17	; 0x10
     1dc:	29 84       	ldd	r2, Y+9	; 0x09
     1de:	3a 84       	ldd	r3, Y+10	; 0x0a
     1e0:	4b 84       	ldd	r4, Y+11	; 0x0b
     1e2:	5c 84       	ldd	r5, Y+12	; 0x0c
     1e4:	ed 84       	ldd	r14, Y+13	; 0x0d
     1e6:	fe 84       	ldd	r15, Y+14	; 0x0e
     1e8:	0f 85       	ldd	r16, Y+15	; 0x0f
     1ea:	18 89       	ldd	r17, Y+16	; 0x10
     1ec:	69 80       	ldd	r6, Y+1	; 0x01
     1ee:	7a 80       	ldd	r7, Y+2	; 0x02
     1f0:	8b 80       	ldd	r8, Y+3	; 0x03
     1f2:	9c 80       	ldd	r9, Y+4	; 0x04
     1f4:	6d a6       	std	Y+45, r6	; 0x2d
     1f6:	7e a6       	std	Y+46, r7	; 0x2e
     1f8:	8f a6       	std	Y+47, r8	; 0x2f
     1fa:	98 aa       	std	Y+48, r9	; 0x30
     1fc:	6d 80       	ldd	r6, Y+5	; 0x05
     1fe:	7e 80       	ldd	r7, Y+6	; 0x06
     200:	8f 80       	ldd	r8, Y+7	; 0x07
     202:	98 84       	ldd	r9, Y+8	; 0x08
     204:	e1 14       	cp	r14, r1
     206:	f1 04       	cpc	r15, r1
     208:	01 05       	cpc	r16, r1
     20a:	11 05       	cpc	r17, r1
     20c:	09 f0       	breq	.+2      	; 0x210 <__udivdi3+0x80>
     20e:	b3 c3       	rjmp	.+1894   	; 0x976 <__stack+0x117>
     210:	62 14       	cp	r6, r2
     212:	73 04       	cpc	r7, r3
     214:	84 04       	cpc	r8, r4
     216:	95 04       	cpc	r9, r5
     218:	08 f0       	brcs	.+2      	; 0x21c <__udivdi3+0x8c>
     21a:	3d c1       	rjmp	.+634    	; 0x496 <__udivdi3+0x306>
     21c:	00 e0       	ldi	r16, 0x00	; 0
     21e:	20 16       	cp	r2, r16
     220:	00 e0       	ldi	r16, 0x00	; 0
     222:	30 06       	cpc	r3, r16
     224:	01 e0       	ldi	r16, 0x01	; 1
     226:	40 06       	cpc	r4, r16
     228:	00 e0       	ldi	r16, 0x00	; 0
     22a:	50 06       	cpc	r5, r16
     22c:	88 f4       	brcc	.+34     	; 0x250 <__udivdi3+0xc0>
     22e:	1f ef       	ldi	r17, 0xFF	; 255
     230:	21 16       	cp	r2, r17
     232:	31 04       	cpc	r3, r1
     234:	41 04       	cpc	r4, r1
     236:	51 04       	cpc	r5, r1
     238:	39 f0       	breq	.+14     	; 0x248 <__udivdi3+0xb8>
     23a:	30 f0       	brcs	.+12     	; 0x248 <__udivdi3+0xb8>
     23c:	48 e0       	ldi	r20, 0x08	; 8
     23e:	e4 2e       	mov	r14, r20
     240:	f1 2c       	mov	r15, r1
     242:	01 2d       	mov	r16, r1
     244:	11 2d       	mov	r17, r1
     246:	18 c0       	rjmp	.+48     	; 0x278 <__udivdi3+0xe8>
     248:	ee 24       	eor	r14, r14
     24a:	ff 24       	eor	r15, r15
     24c:	87 01       	movw	r16, r14
     24e:	14 c0       	rjmp	.+40     	; 0x278 <__udivdi3+0xe8>
     250:	20 e0       	ldi	r18, 0x00	; 0
     252:	22 16       	cp	r2, r18
     254:	20 e0       	ldi	r18, 0x00	; 0
     256:	32 06       	cpc	r3, r18
     258:	20 e0       	ldi	r18, 0x00	; 0
     25a:	42 06       	cpc	r4, r18
     25c:	21 e0       	ldi	r18, 0x01	; 1
     25e:	52 06       	cpc	r5, r18
     260:	30 f0       	brcs	.+12     	; 0x26e <__udivdi3+0xde>
     262:	38 e1       	ldi	r19, 0x18	; 24
     264:	e3 2e       	mov	r14, r19
     266:	f1 2c       	mov	r15, r1
     268:	01 2d       	mov	r16, r1
     26a:	11 2d       	mov	r17, r1
     26c:	05 c0       	rjmp	.+10     	; 0x278 <__udivdi3+0xe8>
     26e:	20 e1       	ldi	r18, 0x10	; 16
     270:	e2 2e       	mov	r14, r18
     272:	f1 2c       	mov	r15, r1
     274:	01 2d       	mov	r16, r1
     276:	11 2d       	mov	r17, r1
     278:	d2 01       	movw	r26, r4
     27a:	c1 01       	movw	r24, r2
     27c:	0e 2c       	mov	r0, r14
     27e:	04 c0       	rjmp	.+8      	; 0x288 <__udivdi3+0xf8>
     280:	b6 95       	lsr	r27
     282:	a7 95       	ror	r26
     284:	97 95       	ror	r25
     286:	87 95       	ror	r24
     288:	0a 94       	dec	r0
     28a:	d2 f7       	brpl	.-12     	; 0x280 <__udivdi3+0xf0>
     28c:	80 5a       	subi	r24, 0xA0	; 160
     28e:	9f 4f       	sbci	r25, 0xFF	; 255
     290:	dc 01       	movw	r26, r24
     292:	2c 91       	ld	r18, X
     294:	80 e2       	ldi	r24, 0x20	; 32
     296:	90 e0       	ldi	r25, 0x00	; 0
     298:	a0 e0       	ldi	r26, 0x00	; 0
     29a:	b0 e0       	ldi	r27, 0x00	; 0
     29c:	8e 19       	sub	r24, r14
     29e:	9f 09       	sbc	r25, r15
     2a0:	a0 0b       	sbc	r26, r16
     2a2:	b1 0b       	sbc	r27, r17
     2a4:	7c 01       	movw	r14, r24
     2a6:	8d 01       	movw	r16, r26
     2a8:	e2 1a       	sub	r14, r18
     2aa:	f1 08       	sbc	r15, r1
     2ac:	01 09       	sbc	r16, r1
     2ae:	11 09       	sbc	r17, r1
     2b0:	e1 14       	cp	r14, r1
     2b2:	f1 04       	cpc	r15, r1
     2b4:	01 05       	cpc	r16, r1
     2b6:	11 05       	cpc	r17, r1
     2b8:	a1 f1       	breq	.+104    	; 0x322 <__udivdi3+0x192>
     2ba:	0e 2c       	mov	r0, r14
     2bc:	04 c0       	rjmp	.+8      	; 0x2c6 <__udivdi3+0x136>
     2be:	22 0c       	add	r2, r2
     2c0:	33 1c       	adc	r3, r3
     2c2:	44 1c       	adc	r4, r4
     2c4:	55 1c       	adc	r5, r5
     2c6:	0a 94       	dec	r0
     2c8:	d2 f7       	brpl	.-12     	; 0x2be <__udivdi3+0x12e>
     2ca:	a4 01       	movw	r20, r8
     2cc:	93 01       	movw	r18, r6
     2ce:	0e 2c       	mov	r0, r14
     2d0:	04 c0       	rjmp	.+8      	; 0x2da <__udivdi3+0x14a>
     2d2:	22 0f       	add	r18, r18
     2d4:	33 1f       	adc	r19, r19
     2d6:	44 1f       	adc	r20, r20
     2d8:	55 1f       	adc	r21, r21
     2da:	0a 94       	dec	r0
     2dc:	d2 f7       	brpl	.-12     	; 0x2d2 <__udivdi3+0x142>
     2de:	80 e2       	ldi	r24, 0x20	; 32
     2e0:	90 e0       	ldi	r25, 0x00	; 0
     2e2:	8e 19       	sub	r24, r14
     2e4:	9f 09       	sbc	r25, r15
     2e6:	6d a4       	ldd	r6, Y+45	; 0x2d
     2e8:	7e a4       	ldd	r7, Y+46	; 0x2e
     2ea:	8f a4       	ldd	r8, Y+47	; 0x2f
     2ec:	98 a8       	ldd	r9, Y+48	; 0x30
     2ee:	04 c0       	rjmp	.+8      	; 0x2f8 <__udivdi3+0x168>
     2f0:	96 94       	lsr	r9
     2f2:	87 94       	ror	r8
     2f4:	77 94       	ror	r7
     2f6:	67 94       	ror	r6
     2f8:	8a 95       	dec	r24
     2fa:	d2 f7       	brpl	.-12     	; 0x2f0 <__udivdi3+0x160>
     2fc:	62 2a       	or	r6, r18
     2fe:	73 2a       	or	r7, r19
     300:	84 2a       	or	r8, r20
     302:	95 2a       	or	r9, r21
     304:	ad a4       	ldd	r10, Y+45	; 0x2d
     306:	be a4       	ldd	r11, Y+46	; 0x2e
     308:	cf a4       	ldd	r12, Y+47	; 0x2f
     30a:	d8 a8       	ldd	r13, Y+48	; 0x30
     30c:	04 c0       	rjmp	.+8      	; 0x316 <__udivdi3+0x186>
     30e:	aa 0c       	add	r10, r10
     310:	bb 1c       	adc	r11, r11
     312:	cc 1c       	adc	r12, r12
     314:	dd 1c       	adc	r13, r13
     316:	ea 94       	dec	r14
     318:	d2 f7       	brpl	.-12     	; 0x30e <__udivdi3+0x17e>
     31a:	ad a6       	std	Y+45, r10	; 0x2d
     31c:	be a6       	std	Y+46, r11	; 0x2e
     31e:	cf a6       	std	Y+47, r12	; 0x2f
     320:	d8 aa       	std	Y+48, r13	; 0x30
     322:	62 01       	movw	r12, r4
     324:	ee 24       	eor	r14, r14
     326:	ff 24       	eor	r15, r15
     328:	cd aa       	std	Y+53, r12	; 0x35
     32a:	de aa       	std	Y+54, r13	; 0x36
     32c:	ef aa       	std	Y+55, r14	; 0x37
     32e:	f8 ae       	std	Y+56, r15	; 0x38
     330:	92 01       	movw	r18, r4
     332:	81 01       	movw	r16, r2
     334:	20 70       	andi	r18, 0x00	; 0
     336:	30 70       	andi	r19, 0x00	; 0
     338:	09 af       	std	Y+57, r16	; 0x39
     33a:	1a af       	std	Y+58, r17	; 0x3a
     33c:	2b af       	std	Y+59, r18	; 0x3b
     33e:	3c af       	std	Y+60, r19	; 0x3c
     340:	c4 01       	movw	r24, r8
     342:	b3 01       	movw	r22, r6
     344:	a7 01       	movw	r20, r14
     346:	96 01       	movw	r18, r12
     348:	0e 94 11 15 	call	0x2a22	; 0x2a22 <__udivmodsi4>
     34c:	7b 01       	movw	r14, r22
     34e:	8c 01       	movw	r16, r24
     350:	c4 01       	movw	r24, r8
     352:	b3 01       	movw	r22, r6
     354:	2d a9       	ldd	r18, Y+53	; 0x35
     356:	3e a9       	ldd	r19, Y+54	; 0x36
     358:	4f a9       	ldd	r20, Y+55	; 0x37
     35a:	58 ad       	ldd	r21, Y+56	; 0x38
     35c:	0e 94 11 15 	call	0x2a22	; 0x2a22 <__udivmodsi4>
     360:	c9 01       	movw	r24, r18
     362:	da 01       	movw	r26, r20
     364:	3c 01       	movw	r6, r24
     366:	4d 01       	movw	r8, r26
     368:	c4 01       	movw	r24, r8
     36a:	b3 01       	movw	r22, r6
     36c:	29 ad       	ldd	r18, Y+57	; 0x39
     36e:	3a ad       	ldd	r19, Y+58	; 0x3a
     370:	4b ad       	ldd	r20, Y+59	; 0x3b
     372:	5c ad       	ldd	r21, Y+60	; 0x3c
     374:	0e 94 f2 14 	call	0x29e4	; 0x29e4 <__mulsi3>
     378:	9b 01       	movw	r18, r22
     37a:	ac 01       	movw	r20, r24
     37c:	87 01       	movw	r16, r14
     37e:	ff 24       	eor	r15, r15
     380:	ee 24       	eor	r14, r14
     382:	ad a4       	ldd	r10, Y+45	; 0x2d
     384:	be a4       	ldd	r11, Y+46	; 0x2e
     386:	cf a4       	ldd	r12, Y+47	; 0x2f
     388:	d8 a8       	ldd	r13, Y+48	; 0x30
     38a:	c6 01       	movw	r24, r12
     38c:	aa 27       	eor	r26, r26
     38e:	bb 27       	eor	r27, r27
     390:	57 01       	movw	r10, r14
     392:	68 01       	movw	r12, r16
     394:	a8 2a       	or	r10, r24
     396:	b9 2a       	or	r11, r25
     398:	ca 2a       	or	r12, r26
     39a:	db 2a       	or	r13, r27
     39c:	a2 16       	cp	r10, r18
     39e:	b3 06       	cpc	r11, r19
     3a0:	c4 06       	cpc	r12, r20
     3a2:	d5 06       	cpc	r13, r21
     3a4:	e0 f4       	brcc	.+56     	; 0x3de <__udivdi3+0x24e>
     3a6:	08 94       	sec
     3a8:	61 08       	sbc	r6, r1
     3aa:	71 08       	sbc	r7, r1
     3ac:	81 08       	sbc	r8, r1
     3ae:	91 08       	sbc	r9, r1
     3b0:	a2 0c       	add	r10, r2
     3b2:	b3 1c       	adc	r11, r3
     3b4:	c4 1c       	adc	r12, r4
     3b6:	d5 1c       	adc	r13, r5
     3b8:	a2 14       	cp	r10, r2
     3ba:	b3 04       	cpc	r11, r3
     3bc:	c4 04       	cpc	r12, r4
     3be:	d5 04       	cpc	r13, r5
     3c0:	70 f0       	brcs	.+28     	; 0x3de <__udivdi3+0x24e>
     3c2:	a2 16       	cp	r10, r18
     3c4:	b3 06       	cpc	r11, r19
     3c6:	c4 06       	cpc	r12, r20
     3c8:	d5 06       	cpc	r13, r21
     3ca:	48 f4       	brcc	.+18     	; 0x3de <__udivdi3+0x24e>
     3cc:	08 94       	sec
     3ce:	61 08       	sbc	r6, r1
     3d0:	71 08       	sbc	r7, r1
     3d2:	81 08       	sbc	r8, r1
     3d4:	91 08       	sbc	r9, r1
     3d6:	a2 0c       	add	r10, r2
     3d8:	b3 1c       	adc	r11, r3
     3da:	c4 1c       	adc	r12, r4
     3dc:	d5 1c       	adc	r13, r5
     3de:	a2 1a       	sub	r10, r18
     3e0:	b3 0a       	sbc	r11, r19
     3e2:	c4 0a       	sbc	r12, r20
     3e4:	d5 0a       	sbc	r13, r21
     3e6:	c6 01       	movw	r24, r12
     3e8:	b5 01       	movw	r22, r10
     3ea:	2d a9       	ldd	r18, Y+53	; 0x35
     3ec:	3e a9       	ldd	r19, Y+54	; 0x36
     3ee:	4f a9       	ldd	r20, Y+55	; 0x37
     3f0:	58 ad       	ldd	r21, Y+56	; 0x38
     3f2:	0e 94 11 15 	call	0x2a22	; 0x2a22 <__udivmodsi4>
     3f6:	7b 01       	movw	r14, r22
     3f8:	8c 01       	movw	r16, r24
     3fa:	c6 01       	movw	r24, r12
     3fc:	b5 01       	movw	r22, r10
     3fe:	2d a9       	ldd	r18, Y+53	; 0x35
     400:	3e a9       	ldd	r19, Y+54	; 0x36
     402:	4f a9       	ldd	r20, Y+55	; 0x37
     404:	58 ad       	ldd	r21, Y+56	; 0x38
     406:	0e 94 11 15 	call	0x2a22	; 0x2a22 <__udivmodsi4>
     40a:	c9 01       	movw	r24, r18
     40c:	da 01       	movw	r26, r20
     40e:	5c 01       	movw	r10, r24
     410:	6d 01       	movw	r12, r26
     412:	c6 01       	movw	r24, r12
     414:	b5 01       	movw	r22, r10
     416:	29 ad       	ldd	r18, Y+57	; 0x39
     418:	3a ad       	ldd	r19, Y+58	; 0x3a
     41a:	4b ad       	ldd	r20, Y+59	; 0x3b
     41c:	5c ad       	ldd	r21, Y+60	; 0x3c
     41e:	0e 94 f2 14 	call	0x29e4	; 0x29e4 <__mulsi3>
     422:	9b 01       	movw	r18, r22
     424:	ac 01       	movw	r20, r24
     426:	87 01       	movw	r16, r14
     428:	ff 24       	eor	r15, r15
     42a:	ee 24       	eor	r14, r14
     42c:	8d a5       	ldd	r24, Y+45	; 0x2d
     42e:	9e a5       	ldd	r25, Y+46	; 0x2e
     430:	af a5       	ldd	r26, Y+47	; 0x2f
     432:	b8 a9       	ldd	r27, Y+48	; 0x30
     434:	a0 70       	andi	r26, 0x00	; 0
     436:	b0 70       	andi	r27, 0x00	; 0
     438:	e8 2a       	or	r14, r24
     43a:	f9 2a       	or	r15, r25
     43c:	0a 2b       	or	r16, r26
     43e:	1b 2b       	or	r17, r27
     440:	e2 16       	cp	r14, r18
     442:	f3 06       	cpc	r15, r19
     444:	04 07       	cpc	r16, r20
     446:	15 07       	cpc	r17, r21
     448:	c0 f4       	brcc	.+48     	; 0x47a <__udivdi3+0x2ea>
     44a:	08 94       	sec
     44c:	a1 08       	sbc	r10, r1
     44e:	b1 08       	sbc	r11, r1
     450:	c1 08       	sbc	r12, r1
     452:	d1 08       	sbc	r13, r1
     454:	e2 0c       	add	r14, r2
     456:	f3 1c       	adc	r15, r3
     458:	04 1d       	adc	r16, r4
     45a:	15 1d       	adc	r17, r5
     45c:	e2 14       	cp	r14, r2
     45e:	f3 04       	cpc	r15, r3
     460:	04 05       	cpc	r16, r4
     462:	15 05       	cpc	r17, r5
     464:	50 f0       	brcs	.+20     	; 0x47a <__udivdi3+0x2ea>
     466:	e2 16       	cp	r14, r18
     468:	f3 06       	cpc	r15, r19
     46a:	04 07       	cpc	r16, r20
     46c:	15 07       	cpc	r17, r21
     46e:	28 f4       	brcc	.+10     	; 0x47a <__udivdi3+0x2ea>
     470:	08 94       	sec
     472:	a1 08       	sbc	r10, r1
     474:	b1 08       	sbc	r11, r1
     476:	c1 08       	sbc	r12, r1
     478:	d1 08       	sbc	r13, r1
     47a:	d3 01       	movw	r26, r6
     47c:	99 27       	eor	r25, r25
     47e:	88 27       	eor	r24, r24
     480:	86 01       	movw	r16, r12
     482:	75 01       	movw	r14, r10
     484:	e8 2a       	or	r14, r24
     486:	f9 2a       	or	r15, r25
     488:	0a 2b       	or	r16, r26
     48a:	1b 2b       	or	r17, r27
     48c:	e9 aa       	std	Y+49, r14	; 0x31
     48e:	fa aa       	std	Y+50, r15	; 0x32
     490:	0b ab       	std	Y+51, r16	; 0x33
     492:	1c ab       	std	Y+52, r17	; 0x34
     494:	cf c4       	rjmp	.+2462   	; 0xe34 <__stack+0x5d5>
     496:	21 14       	cp	r2, r1
     498:	31 04       	cpc	r3, r1
     49a:	41 04       	cpc	r4, r1
     49c:	51 04       	cpc	r5, r1
     49e:	71 f4       	brne	.+28     	; 0x4bc <__udivdi3+0x32c>
     4a0:	61 e0       	ldi	r22, 0x01	; 1
     4a2:	70 e0       	ldi	r23, 0x00	; 0
     4a4:	80 e0       	ldi	r24, 0x00	; 0
     4a6:	90 e0       	ldi	r25, 0x00	; 0
     4a8:	20 e0       	ldi	r18, 0x00	; 0
     4aa:	30 e0       	ldi	r19, 0x00	; 0
     4ac:	40 e0       	ldi	r20, 0x00	; 0
     4ae:	50 e0       	ldi	r21, 0x00	; 0
     4b0:	0e 94 11 15 	call	0x2a22	; 0x2a22 <__udivmodsi4>
     4b4:	c9 01       	movw	r24, r18
     4b6:	da 01       	movw	r26, r20
     4b8:	1c 01       	movw	r2, r24
     4ba:	2d 01       	movw	r4, r26
     4bc:	00 e0       	ldi	r16, 0x00	; 0
     4be:	20 16       	cp	r2, r16
     4c0:	00 e0       	ldi	r16, 0x00	; 0
     4c2:	30 06       	cpc	r3, r16
     4c4:	01 e0       	ldi	r16, 0x01	; 1
     4c6:	40 06       	cpc	r4, r16
     4c8:	00 e0       	ldi	r16, 0x00	; 0
     4ca:	50 06       	cpc	r5, r16
     4cc:	88 f4       	brcc	.+34     	; 0x4f0 <__udivdi3+0x360>
     4ce:	1f ef       	ldi	r17, 0xFF	; 255
     4d0:	21 16       	cp	r2, r17
     4d2:	31 04       	cpc	r3, r1
     4d4:	41 04       	cpc	r4, r1
     4d6:	51 04       	cpc	r5, r1
     4d8:	31 f0       	breq	.+12     	; 0x4e6 <__udivdi3+0x356>
     4da:	28 f0       	brcs	.+10     	; 0x4e6 <__udivdi3+0x356>
     4dc:	48 e0       	ldi	r20, 0x08	; 8
     4de:	50 e0       	ldi	r21, 0x00	; 0
     4e0:	60 e0       	ldi	r22, 0x00	; 0
     4e2:	70 e0       	ldi	r23, 0x00	; 0
     4e4:	17 c0       	rjmp	.+46     	; 0x514 <__udivdi3+0x384>
     4e6:	40 e0       	ldi	r20, 0x00	; 0
     4e8:	50 e0       	ldi	r21, 0x00	; 0
     4ea:	60 e0       	ldi	r22, 0x00	; 0
     4ec:	70 e0       	ldi	r23, 0x00	; 0
     4ee:	12 c0       	rjmp	.+36     	; 0x514 <__udivdi3+0x384>
     4f0:	20 e0       	ldi	r18, 0x00	; 0
     4f2:	22 16       	cp	r2, r18
     4f4:	20 e0       	ldi	r18, 0x00	; 0
     4f6:	32 06       	cpc	r3, r18
     4f8:	20 e0       	ldi	r18, 0x00	; 0
     4fa:	42 06       	cpc	r4, r18
     4fc:	21 e0       	ldi	r18, 0x01	; 1
     4fe:	52 06       	cpc	r5, r18
     500:	28 f0       	brcs	.+10     	; 0x50c <__udivdi3+0x37c>
     502:	48 e1       	ldi	r20, 0x18	; 24
     504:	50 e0       	ldi	r21, 0x00	; 0
     506:	60 e0       	ldi	r22, 0x00	; 0
     508:	70 e0       	ldi	r23, 0x00	; 0
     50a:	04 c0       	rjmp	.+8      	; 0x514 <__udivdi3+0x384>
     50c:	40 e1       	ldi	r20, 0x10	; 16
     50e:	50 e0       	ldi	r21, 0x00	; 0
     510:	60 e0       	ldi	r22, 0x00	; 0
     512:	70 e0       	ldi	r23, 0x00	; 0
     514:	d2 01       	movw	r26, r4
     516:	c1 01       	movw	r24, r2
     518:	04 2e       	mov	r0, r20
     51a:	04 c0       	rjmp	.+8      	; 0x524 <__udivdi3+0x394>
     51c:	b6 95       	lsr	r27
     51e:	a7 95       	ror	r26
     520:	97 95       	ror	r25
     522:	87 95       	ror	r24
     524:	0a 94       	dec	r0
     526:	d2 f7       	brpl	.-12     	; 0x51c <__udivdi3+0x38c>
     528:	80 5a       	subi	r24, 0xA0	; 160
     52a:	9f 4f       	sbci	r25, 0xFF	; 255
     52c:	dc 01       	movw	r26, r24
     52e:	2c 91       	ld	r18, X
     530:	e0 e2       	ldi	r30, 0x20	; 32
     532:	ee 2e       	mov	r14, r30
     534:	f1 2c       	mov	r15, r1
     536:	01 2d       	mov	r16, r1
     538:	11 2d       	mov	r17, r1
     53a:	d8 01       	movw	r26, r16
     53c:	c7 01       	movw	r24, r14
     53e:	84 1b       	sub	r24, r20
     540:	95 0b       	sbc	r25, r21
     542:	a6 0b       	sbc	r26, r22
     544:	b7 0b       	sbc	r27, r23
     546:	82 1b       	sub	r24, r18
     548:	91 09       	sbc	r25, r1
     54a:	a1 09       	sbc	r26, r1
     54c:	b1 09       	sbc	r27, r1
     54e:	00 97       	sbiw	r24, 0x00	; 0
     550:	a1 05       	cpc	r26, r1
     552:	b1 05       	cpc	r27, r1
     554:	61 f4       	brne	.+24     	; 0x56e <__udivdi3+0x3de>
     556:	64 01       	movw	r12, r8
     558:	53 01       	movw	r10, r6
     55a:	a2 18       	sub	r10, r2
     55c:	b3 08       	sbc	r11, r3
     55e:	c4 08       	sbc	r12, r4
     560:	d5 08       	sbc	r13, r5
     562:	31 e0       	ldi	r19, 0x01	; 1
     564:	63 2e       	mov	r6, r19
     566:	71 2c       	mov	r7, r1
     568:	81 2c       	mov	r8, r1
     56a:	91 2c       	mov	r9, r1
     56c:	1e c1       	rjmp	.+572    	; 0x7aa <__udivdi3+0x61a>
     56e:	6f 96       	adiw	r28, 0x1f	; 31
     570:	8f af       	std	Y+63, r24	; 0x3f
     572:	6f 97       	sbiw	r28, 0x1f	; 31
     574:	08 2e       	mov	r0, r24
     576:	04 c0       	rjmp	.+8      	; 0x580 <__udivdi3+0x3f0>
     578:	22 0c       	add	r2, r2
     57a:	33 1c       	adc	r3, r3
     57c:	44 1c       	adc	r4, r4
     57e:	55 1c       	adc	r5, r5
     580:	0a 94       	dec	r0
     582:	d2 f7       	brpl	.-12     	; 0x578 <__udivdi3+0x3e8>
     584:	ee 2d       	mov	r30, r14
     586:	e8 1b       	sub	r30, r24
     588:	64 01       	movw	r12, r8
     58a:	53 01       	movw	r10, r6
     58c:	0e 2e       	mov	r0, r30
     58e:	04 c0       	rjmp	.+8      	; 0x598 <__udivdi3+0x408>
     590:	d6 94       	lsr	r13
     592:	c7 94       	ror	r12
     594:	b7 94       	ror	r11
     596:	a7 94       	ror	r10
     598:	0a 94       	dec	r0
     59a:	d2 f7       	brpl	.-12     	; 0x590 <__udivdi3+0x400>
     59c:	a4 01       	movw	r20, r8
     59e:	93 01       	movw	r18, r6
     5a0:	6f 96       	adiw	r28, 0x1f	; 31
     5a2:	0f ac       	ldd	r0, Y+63	; 0x3f
     5a4:	6f 97       	sbiw	r28, 0x1f	; 31
     5a6:	04 c0       	rjmp	.+8      	; 0x5b0 <__udivdi3+0x420>
     5a8:	22 0f       	add	r18, r18
     5aa:	33 1f       	adc	r19, r19
     5ac:	44 1f       	adc	r20, r20
     5ae:	55 1f       	adc	r21, r21
     5b0:	0a 94       	dec	r0
     5b2:	d2 f7       	brpl	.-12     	; 0x5a8 <__udivdi3+0x418>
     5b4:	6d a4       	ldd	r6, Y+45	; 0x2d
     5b6:	7e a4       	ldd	r7, Y+46	; 0x2e
     5b8:	8f a4       	ldd	r8, Y+47	; 0x2f
     5ba:	98 a8       	ldd	r9, Y+48	; 0x30
     5bc:	0e 2e       	mov	r0, r30
     5be:	04 c0       	rjmp	.+8      	; 0x5c8 <__udivdi3+0x438>
     5c0:	96 94       	lsr	r9
     5c2:	87 94       	ror	r8
     5c4:	77 94       	ror	r7
     5c6:	67 94       	ror	r6
     5c8:	0a 94       	dec	r0
     5ca:	d2 f7       	brpl	.-12     	; 0x5c0 <__udivdi3+0x430>
     5cc:	84 01       	movw	r16, r8
     5ce:	73 01       	movw	r14, r6
     5d0:	e2 2a       	or	r14, r18
     5d2:	f3 2a       	or	r15, r19
     5d4:	04 2b       	or	r16, r20
     5d6:	15 2b       	or	r17, r21
     5d8:	e9 a6       	std	Y+41, r14	; 0x29
     5da:	fa a6       	std	Y+42, r15	; 0x2a
     5dc:	0b a7       	std	Y+43, r16	; 0x2b
     5de:	1c a7       	std	Y+44, r17	; 0x2c
     5e0:	32 01       	movw	r6, r4
     5e2:	88 24       	eor	r8, r8
     5e4:	99 24       	eor	r9, r9
     5e6:	92 01       	movw	r18, r4
     5e8:	81 01       	movw	r16, r2
     5ea:	20 70       	andi	r18, 0x00	; 0
     5ec:	30 70       	andi	r19, 0x00	; 0
     5ee:	21 96       	adiw	r28, 0x01	; 1
     5f0:	0c af       	std	Y+60, r16	; 0x3c
     5f2:	1d af       	std	Y+61, r17	; 0x3d
     5f4:	2e af       	std	Y+62, r18	; 0x3e
     5f6:	3f af       	std	Y+63, r19	; 0x3f
     5f8:	21 97       	sbiw	r28, 0x01	; 1
     5fa:	c6 01       	movw	r24, r12
     5fc:	b5 01       	movw	r22, r10
     5fe:	a4 01       	movw	r20, r8
     600:	93 01       	movw	r18, r6
     602:	0e 94 11 15 	call	0x2a22	; 0x2a22 <__udivmodsi4>
     606:	7b 01       	movw	r14, r22
     608:	8c 01       	movw	r16, r24
     60a:	c6 01       	movw	r24, r12
     60c:	b5 01       	movw	r22, r10
     60e:	a4 01       	movw	r20, r8
     610:	93 01       	movw	r18, r6
     612:	0e 94 11 15 	call	0x2a22	; 0x2a22 <__udivmodsi4>
     616:	c9 01       	movw	r24, r18
     618:	da 01       	movw	r26, r20
     61a:	25 96       	adiw	r28, 0x05	; 5
     61c:	8c af       	std	Y+60, r24	; 0x3c
     61e:	9d af       	std	Y+61, r25	; 0x3d
     620:	ae af       	std	Y+62, r26	; 0x3e
     622:	bf af       	std	Y+63, r27	; 0x3f
     624:	25 97       	sbiw	r28, 0x05	; 5
     626:	bc 01       	movw	r22, r24
     628:	cd 01       	movw	r24, r26
     62a:	21 96       	adiw	r28, 0x01	; 1
     62c:	2c ad       	ldd	r18, Y+60	; 0x3c
     62e:	3d ad       	ldd	r19, Y+61	; 0x3d
     630:	4e ad       	ldd	r20, Y+62	; 0x3e
     632:	5f ad       	ldd	r21, Y+63	; 0x3f
     634:	21 97       	sbiw	r28, 0x01	; 1
     636:	0e 94 f2 14 	call	0x29e4	; 0x29e4 <__mulsi3>
     63a:	9b 01       	movw	r18, r22
     63c:	ac 01       	movw	r20, r24
     63e:	87 01       	movw	r16, r14
     640:	ff 24       	eor	r15, r15
     642:	ee 24       	eor	r14, r14
     644:	a9 a4       	ldd	r10, Y+41	; 0x29
     646:	ba a4       	ldd	r11, Y+42	; 0x2a
     648:	cb a4       	ldd	r12, Y+43	; 0x2b
     64a:	dc a4       	ldd	r13, Y+44	; 0x2c
     64c:	c6 01       	movw	r24, r12
     64e:	aa 27       	eor	r26, r26
     650:	bb 27       	eor	r27, r27
     652:	5c 01       	movw	r10, r24
     654:	6d 01       	movw	r12, r26
     656:	ae 28       	or	r10, r14
     658:	bf 28       	or	r11, r15
     65a:	c0 2a       	or	r12, r16
     65c:	d1 2a       	or	r13, r17
     65e:	a2 16       	cp	r10, r18
     660:	b3 06       	cpc	r11, r19
     662:	c4 06       	cpc	r12, r20
     664:	d5 06       	cpc	r13, r21
     666:	60 f5       	brcc	.+88     	; 0x6c0 <__udivdi3+0x530>
     668:	25 96       	adiw	r28, 0x05	; 5
     66a:	6c ad       	ldd	r22, Y+60	; 0x3c
     66c:	7d ad       	ldd	r23, Y+61	; 0x3d
     66e:	8e ad       	ldd	r24, Y+62	; 0x3e
     670:	9f ad       	ldd	r25, Y+63	; 0x3f
     672:	25 97       	sbiw	r28, 0x05	; 5
     674:	61 50       	subi	r22, 0x01	; 1
     676:	70 40       	sbci	r23, 0x00	; 0
     678:	80 40       	sbci	r24, 0x00	; 0
     67a:	90 40       	sbci	r25, 0x00	; 0
     67c:	25 96       	adiw	r28, 0x05	; 5
     67e:	6c af       	std	Y+60, r22	; 0x3c
     680:	7d af       	std	Y+61, r23	; 0x3d
     682:	8e af       	std	Y+62, r24	; 0x3e
     684:	9f af       	std	Y+63, r25	; 0x3f
     686:	25 97       	sbiw	r28, 0x05	; 5
     688:	a2 0c       	add	r10, r2
     68a:	b3 1c       	adc	r11, r3
     68c:	c4 1c       	adc	r12, r4
     68e:	d5 1c       	adc	r13, r5
     690:	a2 14       	cp	r10, r2
     692:	b3 04       	cpc	r11, r3
     694:	c4 04       	cpc	r12, r4
     696:	d5 04       	cpc	r13, r5
     698:	98 f0       	brcs	.+38     	; 0x6c0 <__udivdi3+0x530>
     69a:	a2 16       	cp	r10, r18
     69c:	b3 06       	cpc	r11, r19
     69e:	c4 06       	cpc	r12, r20
     6a0:	d5 06       	cpc	r13, r21
     6a2:	70 f4       	brcc	.+28     	; 0x6c0 <__udivdi3+0x530>
     6a4:	61 50       	subi	r22, 0x01	; 1
     6a6:	70 40       	sbci	r23, 0x00	; 0
     6a8:	80 40       	sbci	r24, 0x00	; 0
     6aa:	90 40       	sbci	r25, 0x00	; 0
     6ac:	25 96       	adiw	r28, 0x05	; 5
     6ae:	6c af       	std	Y+60, r22	; 0x3c
     6b0:	7d af       	std	Y+61, r23	; 0x3d
     6b2:	8e af       	std	Y+62, r24	; 0x3e
     6b4:	9f af       	std	Y+63, r25	; 0x3f
     6b6:	25 97       	sbiw	r28, 0x05	; 5
     6b8:	a2 0c       	add	r10, r2
     6ba:	b3 1c       	adc	r11, r3
     6bc:	c4 1c       	adc	r12, r4
     6be:	d5 1c       	adc	r13, r5
     6c0:	a2 1a       	sub	r10, r18
     6c2:	b3 0a       	sbc	r11, r19
     6c4:	c4 0a       	sbc	r12, r20
     6c6:	d5 0a       	sbc	r13, r21
     6c8:	c6 01       	movw	r24, r12
     6ca:	b5 01       	movw	r22, r10
     6cc:	a4 01       	movw	r20, r8
     6ce:	93 01       	movw	r18, r6
     6d0:	0e 94 11 15 	call	0x2a22	; 0x2a22 <__udivmodsi4>
     6d4:	7b 01       	movw	r14, r22
     6d6:	8c 01       	movw	r16, r24
     6d8:	c6 01       	movw	r24, r12
     6da:	b5 01       	movw	r22, r10
     6dc:	a4 01       	movw	r20, r8
     6de:	93 01       	movw	r18, r6
     6e0:	0e 94 11 15 	call	0x2a22	; 0x2a22 <__udivmodsi4>
     6e4:	c9 01       	movw	r24, r18
     6e6:	da 01       	movw	r26, r20
     6e8:	3c 01       	movw	r6, r24
     6ea:	4d 01       	movw	r8, r26
     6ec:	c4 01       	movw	r24, r8
     6ee:	b3 01       	movw	r22, r6
     6f0:	21 96       	adiw	r28, 0x01	; 1
     6f2:	2c ad       	ldd	r18, Y+60	; 0x3c
     6f4:	3d ad       	ldd	r19, Y+61	; 0x3d
     6f6:	4e ad       	ldd	r20, Y+62	; 0x3e
     6f8:	5f ad       	ldd	r21, Y+63	; 0x3f
     6fa:	21 97       	sbiw	r28, 0x01	; 1
     6fc:	0e 94 f2 14 	call	0x29e4	; 0x29e4 <__mulsi3>
     700:	9b 01       	movw	r18, r22
     702:	ac 01       	movw	r20, r24
     704:	87 01       	movw	r16, r14
     706:	ff 24       	eor	r15, r15
     708:	ee 24       	eor	r14, r14
     70a:	89 a5       	ldd	r24, Y+41	; 0x29
     70c:	9a a5       	ldd	r25, Y+42	; 0x2a
     70e:	ab a5       	ldd	r26, Y+43	; 0x2b
     710:	bc a5       	ldd	r27, Y+44	; 0x2c
     712:	a0 70       	andi	r26, 0x00	; 0
     714:	b0 70       	andi	r27, 0x00	; 0
     716:	57 01       	movw	r10, r14
     718:	68 01       	movw	r12, r16
     71a:	a8 2a       	or	r10, r24
     71c:	b9 2a       	or	r11, r25
     71e:	ca 2a       	or	r12, r26
     720:	db 2a       	or	r13, r27
     722:	a2 16       	cp	r10, r18
     724:	b3 06       	cpc	r11, r19
     726:	c4 06       	cpc	r12, r20
     728:	d5 06       	cpc	r13, r21
     72a:	e0 f4       	brcc	.+56     	; 0x764 <__udivdi3+0x5d4>
     72c:	08 94       	sec
     72e:	61 08       	sbc	r6, r1
     730:	71 08       	sbc	r7, r1
     732:	81 08       	sbc	r8, r1
     734:	91 08       	sbc	r9, r1
     736:	a2 0c       	add	r10, r2
     738:	b3 1c       	adc	r11, r3
     73a:	c4 1c       	adc	r12, r4
     73c:	d5 1c       	adc	r13, r5
     73e:	a2 14       	cp	r10, r2
     740:	b3 04       	cpc	r11, r3
     742:	c4 04       	cpc	r12, r4
     744:	d5 04       	cpc	r13, r5
     746:	70 f0       	brcs	.+28     	; 0x764 <__udivdi3+0x5d4>
     748:	a2 16       	cp	r10, r18
     74a:	b3 06       	cpc	r11, r19
     74c:	c4 06       	cpc	r12, r20
     74e:	d5 06       	cpc	r13, r21
     750:	48 f4       	brcc	.+18     	; 0x764 <__udivdi3+0x5d4>
     752:	08 94       	sec
     754:	61 08       	sbc	r6, r1
     756:	71 08       	sbc	r7, r1
     758:	81 08       	sbc	r8, r1
     75a:	91 08       	sbc	r9, r1
     75c:	a2 0c       	add	r10, r2
     75e:	b3 1c       	adc	r11, r3
     760:	c4 1c       	adc	r12, r4
     762:	d5 1c       	adc	r13, r5
     764:	8d a5       	ldd	r24, Y+45	; 0x2d
     766:	9e a5       	ldd	r25, Y+46	; 0x2e
     768:	af a5       	ldd	r26, Y+47	; 0x2f
     76a:	b8 a9       	ldd	r27, Y+48	; 0x30
     76c:	6f 96       	adiw	r28, 0x1f	; 31
     76e:	0f ac       	ldd	r0, Y+63	; 0x3f
     770:	6f 97       	sbiw	r28, 0x1f	; 31
     772:	04 c0       	rjmp	.+8      	; 0x77c <__udivdi3+0x5ec>
     774:	88 0f       	add	r24, r24
     776:	99 1f       	adc	r25, r25
     778:	aa 1f       	adc	r26, r26
     77a:	bb 1f       	adc	r27, r27
     77c:	0a 94       	dec	r0
     77e:	d2 f7       	brpl	.-12     	; 0x774 <__udivdi3+0x5e4>
     780:	8d a7       	std	Y+45, r24	; 0x2d
     782:	9e a7       	std	Y+46, r25	; 0x2e
     784:	af a7       	std	Y+47, r26	; 0x2f
     786:	b8 ab       	std	Y+48, r27	; 0x30
     788:	a2 1a       	sub	r10, r18
     78a:	b3 0a       	sbc	r11, r19
     78c:	c4 0a       	sbc	r12, r20
     78e:	d5 0a       	sbc	r13, r21
     790:	25 96       	adiw	r28, 0x05	; 5
     792:	ec ac       	ldd	r14, Y+60	; 0x3c
     794:	fd ac       	ldd	r15, Y+61	; 0x3d
     796:	0e ad       	ldd	r16, Y+62	; 0x3e
     798:	1f ad       	ldd	r17, Y+63	; 0x3f
     79a:	25 97       	sbiw	r28, 0x05	; 5
     79c:	d7 01       	movw	r26, r14
     79e:	99 27       	eor	r25, r25
     7a0:	88 27       	eor	r24, r24
     7a2:	68 2a       	or	r6, r24
     7a4:	79 2a       	or	r7, r25
     7a6:	8a 2a       	or	r8, r26
     7a8:	9b 2a       	or	r9, r27
     7aa:	82 01       	movw	r16, r4
     7ac:	22 27       	eor	r18, r18
     7ae:	33 27       	eor	r19, r19
     7b0:	29 96       	adiw	r28, 0x09	; 9
     7b2:	0c af       	std	Y+60, r16	; 0x3c
     7b4:	1d af       	std	Y+61, r17	; 0x3d
     7b6:	2e af       	std	Y+62, r18	; 0x3e
     7b8:	3f af       	std	Y+63, r19	; 0x3f
     7ba:	29 97       	sbiw	r28, 0x09	; 9
     7bc:	a2 01       	movw	r20, r4
     7be:	91 01       	movw	r18, r2
     7c0:	40 70       	andi	r20, 0x00	; 0
     7c2:	50 70       	andi	r21, 0x00	; 0
     7c4:	2d 96       	adiw	r28, 0x0d	; 13
     7c6:	2c af       	std	Y+60, r18	; 0x3c
     7c8:	3d af       	std	Y+61, r19	; 0x3d
     7ca:	4e af       	std	Y+62, r20	; 0x3e
     7cc:	5f af       	std	Y+63, r21	; 0x3f
     7ce:	2d 97       	sbiw	r28, 0x0d	; 13
     7d0:	c6 01       	movw	r24, r12
     7d2:	b5 01       	movw	r22, r10
     7d4:	29 96       	adiw	r28, 0x09	; 9
     7d6:	2c ad       	ldd	r18, Y+60	; 0x3c
     7d8:	3d ad       	ldd	r19, Y+61	; 0x3d
     7da:	4e ad       	ldd	r20, Y+62	; 0x3e
     7dc:	5f ad       	ldd	r21, Y+63	; 0x3f
     7de:	29 97       	sbiw	r28, 0x09	; 9
     7e0:	0e 94 11 15 	call	0x2a22	; 0x2a22 <__udivmodsi4>
     7e4:	7b 01       	movw	r14, r22
     7e6:	8c 01       	movw	r16, r24
     7e8:	c6 01       	movw	r24, r12
     7ea:	b5 01       	movw	r22, r10
     7ec:	29 96       	adiw	r28, 0x09	; 9
     7ee:	2c ad       	ldd	r18, Y+60	; 0x3c
     7f0:	3d ad       	ldd	r19, Y+61	; 0x3d
     7f2:	4e ad       	ldd	r20, Y+62	; 0x3e
     7f4:	5f ad       	ldd	r21, Y+63	; 0x3f
     7f6:	29 97       	sbiw	r28, 0x09	; 9
     7f8:	0e 94 11 15 	call	0x2a22	; 0x2a22 <__udivmodsi4>
     7fc:	c9 01       	movw	r24, r18
     7fe:	da 01       	movw	r26, r20
     800:	61 96       	adiw	r28, 0x11	; 17
     802:	8c af       	std	Y+60, r24	; 0x3c
     804:	9d af       	std	Y+61, r25	; 0x3d
     806:	ae af       	std	Y+62, r26	; 0x3e
     808:	bf af       	std	Y+63, r27	; 0x3f
     80a:	61 97       	sbiw	r28, 0x11	; 17
     80c:	bc 01       	movw	r22, r24
     80e:	cd 01       	movw	r24, r26
     810:	2d 96       	adiw	r28, 0x0d	; 13
     812:	2c ad       	ldd	r18, Y+60	; 0x3c
     814:	3d ad       	ldd	r19, Y+61	; 0x3d
     816:	4e ad       	ldd	r20, Y+62	; 0x3e
     818:	5f ad       	ldd	r21, Y+63	; 0x3f
     81a:	2d 97       	sbiw	r28, 0x0d	; 13
     81c:	0e 94 f2 14 	call	0x29e4	; 0x29e4 <__mulsi3>
     820:	9b 01       	movw	r18, r22
     822:	ac 01       	movw	r20, r24
     824:	87 01       	movw	r16, r14
     826:	ff 24       	eor	r15, r15
     828:	ee 24       	eor	r14, r14
     82a:	ad a4       	ldd	r10, Y+45	; 0x2d
     82c:	be a4       	ldd	r11, Y+46	; 0x2e
     82e:	cf a4       	ldd	r12, Y+47	; 0x2f
     830:	d8 a8       	ldd	r13, Y+48	; 0x30
     832:	c6 01       	movw	r24, r12
     834:	aa 27       	eor	r26, r26
     836:	bb 27       	eor	r27, r27
     838:	57 01       	movw	r10, r14
     83a:	68 01       	movw	r12, r16
     83c:	a8 2a       	or	r10, r24
     83e:	b9 2a       	or	r11, r25
     840:	ca 2a       	or	r12, r26
     842:	db 2a       	or	r13, r27
     844:	a2 16       	cp	r10, r18
     846:	b3 06       	cpc	r11, r19
     848:	c4 06       	cpc	r12, r20
     84a:	d5 06       	cpc	r13, r21
     84c:	60 f5       	brcc	.+88     	; 0x8a6 <__stack+0x47>
     84e:	61 96       	adiw	r28, 0x11	; 17
     850:	6c ad       	ldd	r22, Y+60	; 0x3c
     852:	7d ad       	ldd	r23, Y+61	; 0x3d
     854:	8e ad       	ldd	r24, Y+62	; 0x3e
     856:	9f ad       	ldd	r25, Y+63	; 0x3f
     858:	61 97       	sbiw	r28, 0x11	; 17
     85a:	61 50       	subi	r22, 0x01	; 1
     85c:	70 40       	sbci	r23, 0x00	; 0
     85e:	80 40       	sbci	r24, 0x00	; 0
     860:	90 40       	sbci	r25, 0x00	; 0
     862:	61 96       	adiw	r28, 0x11	; 17
     864:	6c af       	std	Y+60, r22	; 0x3c
     866:	7d af       	std	Y+61, r23	; 0x3d
     868:	8e af       	std	Y+62, r24	; 0x3e
     86a:	9f af       	std	Y+63, r25	; 0x3f
     86c:	61 97       	sbiw	r28, 0x11	; 17
     86e:	a2 0c       	add	r10, r2
     870:	b3 1c       	adc	r11, r3
     872:	c4 1c       	adc	r12, r4
     874:	d5 1c       	adc	r13, r5
     876:	a2 14       	cp	r10, r2
     878:	b3 04       	cpc	r11, r3
     87a:	c4 04       	cpc	r12, r4
     87c:	d5 04       	cpc	r13, r5
     87e:	98 f0       	brcs	.+38     	; 0x8a6 <__stack+0x47>
     880:	a2 16       	cp	r10, r18
     882:	b3 06       	cpc	r11, r19
     884:	c4 06       	cpc	r12, r20
     886:	d5 06       	cpc	r13, r21
     888:	70 f4       	brcc	.+28     	; 0x8a6 <__stack+0x47>
     88a:	61 50       	subi	r22, 0x01	; 1
     88c:	70 40       	sbci	r23, 0x00	; 0
     88e:	80 40       	sbci	r24, 0x00	; 0
     890:	90 40       	sbci	r25, 0x00	; 0
     892:	61 96       	adiw	r28, 0x11	; 17
     894:	6c af       	std	Y+60, r22	; 0x3c
     896:	7d af       	std	Y+61, r23	; 0x3d
     898:	8e af       	std	Y+62, r24	; 0x3e
     89a:	9f af       	std	Y+63, r25	; 0x3f
     89c:	61 97       	sbiw	r28, 0x11	; 17
     89e:	a2 0c       	add	r10, r2
     8a0:	b3 1c       	adc	r11, r3
     8a2:	c4 1c       	adc	r12, r4
     8a4:	d5 1c       	adc	r13, r5
     8a6:	a2 1a       	sub	r10, r18
     8a8:	b3 0a       	sbc	r11, r19
     8aa:	c4 0a       	sbc	r12, r20
     8ac:	d5 0a       	sbc	r13, r21
     8ae:	c6 01       	movw	r24, r12
     8b0:	b5 01       	movw	r22, r10
     8b2:	29 96       	adiw	r28, 0x09	; 9
     8b4:	2c ad       	ldd	r18, Y+60	; 0x3c
     8b6:	3d ad       	ldd	r19, Y+61	; 0x3d
     8b8:	4e ad       	ldd	r20, Y+62	; 0x3e
     8ba:	5f ad       	ldd	r21, Y+63	; 0x3f
     8bc:	29 97       	sbiw	r28, 0x09	; 9
     8be:	0e 94 11 15 	call	0x2a22	; 0x2a22 <__udivmodsi4>
     8c2:	7b 01       	movw	r14, r22
     8c4:	8c 01       	movw	r16, r24
     8c6:	c6 01       	movw	r24, r12
     8c8:	b5 01       	movw	r22, r10
     8ca:	29 96       	adiw	r28, 0x09	; 9
     8cc:	2c ad       	ldd	r18, Y+60	; 0x3c
     8ce:	3d ad       	ldd	r19, Y+61	; 0x3d
     8d0:	4e ad       	ldd	r20, Y+62	; 0x3e
     8d2:	5f ad       	ldd	r21, Y+63	; 0x3f
     8d4:	29 97       	sbiw	r28, 0x09	; 9
     8d6:	0e 94 11 15 	call	0x2a22	; 0x2a22 <__udivmodsi4>
     8da:	c9 01       	movw	r24, r18
     8dc:	da 01       	movw	r26, r20
     8de:	5c 01       	movw	r10, r24
     8e0:	6d 01       	movw	r12, r26
     8e2:	c6 01       	movw	r24, r12
     8e4:	b5 01       	movw	r22, r10
     8e6:	2d 96       	adiw	r28, 0x0d	; 13
     8e8:	2c ad       	ldd	r18, Y+60	; 0x3c
     8ea:	3d ad       	ldd	r19, Y+61	; 0x3d
     8ec:	4e ad       	ldd	r20, Y+62	; 0x3e
     8ee:	5f ad       	ldd	r21, Y+63	; 0x3f
     8f0:	2d 97       	sbiw	r28, 0x0d	; 13
     8f2:	0e 94 f2 14 	call	0x29e4	; 0x29e4 <__mulsi3>
     8f6:	9b 01       	movw	r18, r22
     8f8:	ac 01       	movw	r20, r24
     8fa:	87 01       	movw	r16, r14
     8fc:	ff 24       	eor	r15, r15
     8fe:	ee 24       	eor	r14, r14
     900:	8d a5       	ldd	r24, Y+45	; 0x2d
     902:	9e a5       	ldd	r25, Y+46	; 0x2e
     904:	af a5       	ldd	r26, Y+47	; 0x2f
     906:	b8 a9       	ldd	r27, Y+48	; 0x30
     908:	a0 70       	andi	r26, 0x00	; 0
     90a:	b0 70       	andi	r27, 0x00	; 0
     90c:	e8 2a       	or	r14, r24
     90e:	f9 2a       	or	r15, r25
     910:	0a 2b       	or	r16, r26
     912:	1b 2b       	or	r17, r27
     914:	e2 16       	cp	r14, r18
     916:	f3 06       	cpc	r15, r19
     918:	04 07       	cpc	r16, r20
     91a:	15 07       	cpc	r17, r21
     91c:	c0 f4       	brcc	.+48     	; 0x94e <__stack+0xef>
     91e:	08 94       	sec
     920:	a1 08       	sbc	r10, r1
     922:	b1 08       	sbc	r11, r1
     924:	c1 08       	sbc	r12, r1
     926:	d1 08       	sbc	r13, r1
     928:	e2 0c       	add	r14, r2
     92a:	f3 1c       	adc	r15, r3
     92c:	04 1d       	adc	r16, r4
     92e:	15 1d       	adc	r17, r5
     930:	e2 14       	cp	r14, r2
     932:	f3 04       	cpc	r15, r3
     934:	04 05       	cpc	r16, r4
     936:	15 05       	cpc	r17, r5
     938:	50 f0       	brcs	.+20     	; 0x94e <__stack+0xef>
     93a:	e2 16       	cp	r14, r18
     93c:	f3 06       	cpc	r15, r19
     93e:	04 07       	cpc	r16, r20
     940:	15 07       	cpc	r17, r21
     942:	28 f4       	brcc	.+10     	; 0x94e <__stack+0xef>
     944:	08 94       	sec
     946:	a1 08       	sbc	r10, r1
     948:	b1 08       	sbc	r11, r1
     94a:	c1 08       	sbc	r12, r1
     94c:	d1 08       	sbc	r13, r1
     94e:	61 96       	adiw	r28, 0x11	; 17
     950:	ec ac       	ldd	r14, Y+60	; 0x3c
     952:	fd ac       	ldd	r15, Y+61	; 0x3d
     954:	0e ad       	ldd	r16, Y+62	; 0x3e
     956:	1f ad       	ldd	r17, Y+63	; 0x3f
     958:	61 97       	sbiw	r28, 0x11	; 17
     95a:	d7 01       	movw	r26, r14
     95c:	99 27       	eor	r25, r25
     95e:	88 27       	eor	r24, r24
     960:	96 01       	movw	r18, r12
     962:	85 01       	movw	r16, r10
     964:	08 2b       	or	r16, r24
     966:	19 2b       	or	r17, r25
     968:	2a 2b       	or	r18, r26
     96a:	3b 2b       	or	r19, r27
     96c:	09 ab       	std	Y+49, r16	; 0x31
     96e:	1a ab       	std	Y+50, r17	; 0x32
     970:	2b ab       	std	Y+51, r18	; 0x33
     972:	3c ab       	std	Y+52, r19	; 0x34
     974:	62 c2       	rjmp	.+1220   	; 0xe3a <__stack+0x5db>
     976:	6e 14       	cp	r6, r14
     978:	7f 04       	cpc	r7, r15
     97a:	80 06       	cpc	r8, r16
     97c:	91 06       	cpc	r9, r17
     97e:	08 f4       	brcc	.+2      	; 0x982 <__stack+0x123>
     980:	51 c2       	rjmp	.+1186   	; 0xe24 <__stack+0x5c5>
     982:	20 e0       	ldi	r18, 0x00	; 0
     984:	e2 16       	cp	r14, r18
     986:	20 e0       	ldi	r18, 0x00	; 0
     988:	f2 06       	cpc	r15, r18
     98a:	21 e0       	ldi	r18, 0x01	; 1
     98c:	02 07       	cpc	r16, r18
     98e:	20 e0       	ldi	r18, 0x00	; 0
     990:	12 07       	cpc	r17, r18
     992:	88 f4       	brcc	.+34     	; 0x9b6 <__stack+0x157>
     994:	3f ef       	ldi	r19, 0xFF	; 255
     996:	e3 16       	cp	r14, r19
     998:	f1 04       	cpc	r15, r1
     99a:	01 05       	cpc	r16, r1
     99c:	11 05       	cpc	r17, r1
     99e:	31 f0       	breq	.+12     	; 0x9ac <__stack+0x14d>
     9a0:	28 f0       	brcs	.+10     	; 0x9ac <__stack+0x14d>
     9a2:	48 e0       	ldi	r20, 0x08	; 8
     9a4:	50 e0       	ldi	r21, 0x00	; 0
     9a6:	60 e0       	ldi	r22, 0x00	; 0
     9a8:	70 e0       	ldi	r23, 0x00	; 0
     9aa:	17 c0       	rjmp	.+46     	; 0x9da <__stack+0x17b>
     9ac:	40 e0       	ldi	r20, 0x00	; 0
     9ae:	50 e0       	ldi	r21, 0x00	; 0
     9b0:	60 e0       	ldi	r22, 0x00	; 0
     9b2:	70 e0       	ldi	r23, 0x00	; 0
     9b4:	12 c0       	rjmp	.+36     	; 0x9da <__stack+0x17b>
     9b6:	40 e0       	ldi	r20, 0x00	; 0
     9b8:	e4 16       	cp	r14, r20
     9ba:	40 e0       	ldi	r20, 0x00	; 0
     9bc:	f4 06       	cpc	r15, r20
     9be:	40 e0       	ldi	r20, 0x00	; 0
     9c0:	04 07       	cpc	r16, r20
     9c2:	41 e0       	ldi	r20, 0x01	; 1
     9c4:	14 07       	cpc	r17, r20
     9c6:	28 f0       	brcs	.+10     	; 0x9d2 <__stack+0x173>
     9c8:	48 e1       	ldi	r20, 0x18	; 24
     9ca:	50 e0       	ldi	r21, 0x00	; 0
     9cc:	60 e0       	ldi	r22, 0x00	; 0
     9ce:	70 e0       	ldi	r23, 0x00	; 0
     9d0:	04 c0       	rjmp	.+8      	; 0x9da <__stack+0x17b>
     9d2:	40 e1       	ldi	r20, 0x10	; 16
     9d4:	50 e0       	ldi	r21, 0x00	; 0
     9d6:	60 e0       	ldi	r22, 0x00	; 0
     9d8:	70 e0       	ldi	r23, 0x00	; 0
     9da:	d8 01       	movw	r26, r16
     9dc:	c7 01       	movw	r24, r14
     9de:	04 2e       	mov	r0, r20
     9e0:	04 c0       	rjmp	.+8      	; 0x9ea <__stack+0x18b>
     9e2:	b6 95       	lsr	r27
     9e4:	a7 95       	ror	r26
     9e6:	97 95       	ror	r25
     9e8:	87 95       	ror	r24
     9ea:	0a 94       	dec	r0
     9ec:	d2 f7       	brpl	.-12     	; 0x9e2 <__stack+0x183>
     9ee:	80 5a       	subi	r24, 0xA0	; 160
     9f0:	9f 4f       	sbci	r25, 0xFF	; 255
     9f2:	dc 01       	movw	r26, r24
     9f4:	2c 91       	ld	r18, X
     9f6:	30 e2       	ldi	r19, 0x20	; 32
     9f8:	a3 2e       	mov	r10, r19
     9fa:	b1 2c       	mov	r11, r1
     9fc:	c1 2c       	mov	r12, r1
     9fe:	d1 2c       	mov	r13, r1
     a00:	d6 01       	movw	r26, r12
     a02:	c5 01       	movw	r24, r10
     a04:	84 1b       	sub	r24, r20
     a06:	95 0b       	sbc	r25, r21
     a08:	a6 0b       	sbc	r26, r22
     a0a:	b7 0b       	sbc	r27, r23
     a0c:	82 1b       	sub	r24, r18
     a0e:	91 09       	sbc	r25, r1
     a10:	a1 09       	sbc	r26, r1
     a12:	b1 09       	sbc	r27, r1
     a14:	00 97       	sbiw	r24, 0x00	; 0
     a16:	a1 05       	cpc	r26, r1
     a18:	b1 05       	cpc	r27, r1
     a1a:	89 f4       	brne	.+34     	; 0xa3e <__stack+0x1df>
     a1c:	e6 14       	cp	r14, r6
     a1e:	f7 04       	cpc	r15, r7
     a20:	08 05       	cpc	r16, r8
     a22:	19 05       	cpc	r17, r9
     a24:	08 f4       	brcc	.+2      	; 0xa28 <__stack+0x1c9>
     a26:	f2 c1       	rjmp	.+996    	; 0xe0c <__stack+0x5ad>
     a28:	6d a4       	ldd	r6, Y+45	; 0x2d
     a2a:	7e a4       	ldd	r7, Y+46	; 0x2e
     a2c:	8f a4       	ldd	r8, Y+47	; 0x2f
     a2e:	98 a8       	ldd	r9, Y+48	; 0x30
     a30:	62 14       	cp	r6, r2
     a32:	73 04       	cpc	r7, r3
     a34:	84 04       	cpc	r8, r4
     a36:	95 04       	cpc	r9, r5
     a38:	08 f0       	brcs	.+2      	; 0xa3c <__stack+0x1dd>
     a3a:	e8 c1       	rjmp	.+976    	; 0xe0c <__stack+0x5ad>
     a3c:	f3 c1       	rjmp	.+998    	; 0xe24 <__stack+0x5c5>
     a3e:	6e 96       	adiw	r28, 0x1e	; 30
     a40:	8f af       	std	Y+63, r24	; 0x3f
     a42:	6e 97       	sbiw	r28, 0x1e	; 30
     a44:	08 2e       	mov	r0, r24
     a46:	04 c0       	rjmp	.+8      	; 0xa50 <__stack+0x1f1>
     a48:	ee 0c       	add	r14, r14
     a4a:	ff 1c       	adc	r15, r15
     a4c:	00 1f       	adc	r16, r16
     a4e:	11 1f       	adc	r17, r17
     a50:	0a 94       	dec	r0
     a52:	d2 f7       	brpl	.-12     	; 0xa48 <__stack+0x1e9>
     a54:	6a 2d       	mov	r22, r10
     a56:	68 1b       	sub	r22, r24
     a58:	d2 01       	movw	r26, r4
     a5a:	c1 01       	movw	r24, r2
     a5c:	06 2e       	mov	r0, r22
     a5e:	04 c0       	rjmp	.+8      	; 0xa68 <__stack+0x209>
     a60:	b6 95       	lsr	r27
     a62:	a7 95       	ror	r26
     a64:	97 95       	ror	r25
     a66:	87 95       	ror	r24
     a68:	0a 94       	dec	r0
     a6a:	d2 f7       	brpl	.-12     	; 0xa60 <__stack+0x201>
     a6c:	5c 01       	movw	r10, r24
     a6e:	6d 01       	movw	r12, r26
     a70:	ae 28       	or	r10, r14
     a72:	bf 28       	or	r11, r15
     a74:	c0 2a       	or	r12, r16
     a76:	d1 2a       	or	r13, r17
     a78:	ad a2       	std	Y+37, r10	; 0x25
     a7a:	be a2       	std	Y+38, r11	; 0x26
     a7c:	cf a2       	std	Y+39, r12	; 0x27
     a7e:	d8 a6       	std	Y+40, r13	; 0x28
     a80:	72 01       	movw	r14, r4
     a82:	61 01       	movw	r12, r2
     a84:	6e 96       	adiw	r28, 0x1e	; 30
     a86:	0f ac       	ldd	r0, Y+63	; 0x3f
     a88:	6e 97       	sbiw	r28, 0x1e	; 30
     a8a:	04 c0       	rjmp	.+8      	; 0xa94 <__stack+0x235>
     a8c:	cc 0c       	add	r12, r12
     a8e:	dd 1c       	adc	r13, r13
     a90:	ee 1c       	adc	r14, r14
     a92:	ff 1c       	adc	r15, r15
     a94:	0a 94       	dec	r0
     a96:	d2 f7       	brpl	.-12     	; 0xa8c <__stack+0x22d>
     a98:	c9 a2       	std	Y+33, r12	; 0x21
     a9a:	da a2       	std	Y+34, r13	; 0x22
     a9c:	eb a2       	std	Y+35, r14	; 0x23
     a9e:	fc a2       	std	Y+36, r15	; 0x24
     aa0:	64 01       	movw	r12, r8
     aa2:	53 01       	movw	r10, r6
     aa4:	06 2e       	mov	r0, r22
     aa6:	04 c0       	rjmp	.+8      	; 0xab0 <__stack+0x251>
     aa8:	d6 94       	lsr	r13
     aaa:	c7 94       	ror	r12
     aac:	b7 94       	ror	r11
     aae:	a7 94       	ror	r10
     ab0:	0a 94       	dec	r0
     ab2:	d2 f7       	brpl	.-12     	; 0xaa8 <__stack+0x249>
     ab4:	d4 01       	movw	r26, r8
     ab6:	c3 01       	movw	r24, r6
     ab8:	6e 96       	adiw	r28, 0x1e	; 30
     aba:	0f ac       	ldd	r0, Y+63	; 0x3f
     abc:	6e 97       	sbiw	r28, 0x1e	; 30
     abe:	04 c0       	rjmp	.+8      	; 0xac8 <__stack+0x269>
     ac0:	88 0f       	add	r24, r24
     ac2:	99 1f       	adc	r25, r25
     ac4:	aa 1f       	adc	r26, r26
     ac6:	bb 1f       	adc	r27, r27
     ac8:	0a 94       	dec	r0
     aca:	d2 f7       	brpl	.-12     	; 0xac0 <__stack+0x261>
     acc:	ed a4       	ldd	r14, Y+45	; 0x2d
     ace:	fe a4       	ldd	r15, Y+46	; 0x2e
     ad0:	0f a5       	ldd	r16, Y+47	; 0x2f
     ad2:	18 a9       	ldd	r17, Y+48	; 0x30
     ad4:	04 c0       	rjmp	.+8      	; 0xade <__stack+0x27f>
     ad6:	16 95       	lsr	r17
     ad8:	07 95       	ror	r16
     ada:	f7 94       	ror	r15
     adc:	e7 94       	ror	r14
     ade:	6a 95       	dec	r22
     ae0:	d2 f7       	brpl	.-12     	; 0xad6 <__stack+0x277>
     ae2:	37 01       	movw	r6, r14
     ae4:	48 01       	movw	r8, r16
     ae6:	68 2a       	or	r6, r24
     ae8:	79 2a       	or	r7, r25
     aea:	8a 2a       	or	r8, r26
     aec:	9b 2a       	or	r9, r27
     aee:	6d 8e       	std	Y+29, r6	; 0x1d
     af0:	7e 8e       	std	Y+30, r7	; 0x1e
     af2:	8f 8e       	std	Y+31, r8	; 0x1f
     af4:	98 a2       	std	Y+32, r9	; 0x20
     af6:	ed a0       	ldd	r14, Y+37	; 0x25
     af8:	fe a0       	ldd	r15, Y+38	; 0x26
     afa:	0f a1       	ldd	r16, Y+39	; 0x27
     afc:	18 a5       	ldd	r17, Y+40	; 0x28
     afe:	38 01       	movw	r6, r16
     b00:	88 24       	eor	r8, r8
     b02:	99 24       	eor	r9, r9
     b04:	98 01       	movw	r18, r16
     b06:	87 01       	movw	r16, r14
     b08:	20 70       	andi	r18, 0x00	; 0
     b0a:	30 70       	andi	r19, 0x00	; 0
     b0c:	65 96       	adiw	r28, 0x15	; 21
     b0e:	0c af       	std	Y+60, r16	; 0x3c
     b10:	1d af       	std	Y+61, r17	; 0x3d
     b12:	2e af       	std	Y+62, r18	; 0x3e
     b14:	3f af       	std	Y+63, r19	; 0x3f
     b16:	65 97       	sbiw	r28, 0x15	; 21
     b18:	c6 01       	movw	r24, r12
     b1a:	b5 01       	movw	r22, r10
     b1c:	a4 01       	movw	r20, r8
     b1e:	93 01       	movw	r18, r6
     b20:	0e 94 11 15 	call	0x2a22	; 0x2a22 <__udivmodsi4>
     b24:	7b 01       	movw	r14, r22
     b26:	8c 01       	movw	r16, r24
     b28:	c6 01       	movw	r24, r12
     b2a:	b5 01       	movw	r22, r10
     b2c:	a4 01       	movw	r20, r8
     b2e:	93 01       	movw	r18, r6
     b30:	0e 94 11 15 	call	0x2a22	; 0x2a22 <__udivmodsi4>
     b34:	c9 01       	movw	r24, r18
     b36:	da 01       	movw	r26, r20
     b38:	1c 01       	movw	r2, r24
     b3a:	2d 01       	movw	r4, r26
     b3c:	c2 01       	movw	r24, r4
     b3e:	b1 01       	movw	r22, r2
     b40:	65 96       	adiw	r28, 0x15	; 21
     b42:	2c ad       	ldd	r18, Y+60	; 0x3c
     b44:	3d ad       	ldd	r19, Y+61	; 0x3d
     b46:	4e ad       	ldd	r20, Y+62	; 0x3e
     b48:	5f ad       	ldd	r21, Y+63	; 0x3f
     b4a:	65 97       	sbiw	r28, 0x15	; 21
     b4c:	0e 94 f2 14 	call	0x29e4	; 0x29e4 <__mulsi3>
     b50:	9b 01       	movw	r18, r22
     b52:	ac 01       	movw	r20, r24
     b54:	87 01       	movw	r16, r14
     b56:	ff 24       	eor	r15, r15
     b58:	ee 24       	eor	r14, r14
     b5a:	ad 8c       	ldd	r10, Y+29	; 0x1d
     b5c:	be 8c       	ldd	r11, Y+30	; 0x1e
     b5e:	cf 8c       	ldd	r12, Y+31	; 0x1f
     b60:	d8 a0       	ldd	r13, Y+32	; 0x20
     b62:	c6 01       	movw	r24, r12
     b64:	aa 27       	eor	r26, r26
     b66:	bb 27       	eor	r27, r27
     b68:	57 01       	movw	r10, r14
     b6a:	68 01       	movw	r12, r16
     b6c:	a8 2a       	or	r10, r24
     b6e:	b9 2a       	or	r11, r25
     b70:	ca 2a       	or	r12, r26
     b72:	db 2a       	or	r13, r27
     b74:	a2 16       	cp	r10, r18
     b76:	b3 06       	cpc	r11, r19
     b78:	c4 06       	cpc	r12, r20
     b7a:	d5 06       	cpc	r13, r21
     b7c:	00 f5       	brcc	.+64     	; 0xbbe <__stack+0x35f>
     b7e:	08 94       	sec
     b80:	21 08       	sbc	r2, r1
     b82:	31 08       	sbc	r3, r1
     b84:	41 08       	sbc	r4, r1
     b86:	51 08       	sbc	r5, r1
     b88:	ed a0       	ldd	r14, Y+37	; 0x25
     b8a:	fe a0       	ldd	r15, Y+38	; 0x26
     b8c:	0f a1       	ldd	r16, Y+39	; 0x27
     b8e:	18 a5       	ldd	r17, Y+40	; 0x28
     b90:	ae 0c       	add	r10, r14
     b92:	bf 1c       	adc	r11, r15
     b94:	c0 1e       	adc	r12, r16
     b96:	d1 1e       	adc	r13, r17
     b98:	ae 14       	cp	r10, r14
     b9a:	bf 04       	cpc	r11, r15
     b9c:	c0 06       	cpc	r12, r16
     b9e:	d1 06       	cpc	r13, r17
     ba0:	70 f0       	brcs	.+28     	; 0xbbe <__stack+0x35f>
     ba2:	a2 16       	cp	r10, r18
     ba4:	b3 06       	cpc	r11, r19
     ba6:	c4 06       	cpc	r12, r20
     ba8:	d5 06       	cpc	r13, r21
     baa:	48 f4       	brcc	.+18     	; 0xbbe <__stack+0x35f>
     bac:	08 94       	sec
     bae:	21 08       	sbc	r2, r1
     bb0:	31 08       	sbc	r3, r1
     bb2:	41 08       	sbc	r4, r1
     bb4:	51 08       	sbc	r5, r1
     bb6:	ae 0c       	add	r10, r14
     bb8:	bf 1c       	adc	r11, r15
     bba:	c0 1e       	adc	r12, r16
     bbc:	d1 1e       	adc	r13, r17
     bbe:	a2 1a       	sub	r10, r18
     bc0:	b3 0a       	sbc	r11, r19
     bc2:	c4 0a       	sbc	r12, r20
     bc4:	d5 0a       	sbc	r13, r21
     bc6:	c6 01       	movw	r24, r12
     bc8:	b5 01       	movw	r22, r10
     bca:	a4 01       	movw	r20, r8
     bcc:	93 01       	movw	r18, r6
     bce:	0e 94 11 15 	call	0x2a22	; 0x2a22 <__udivmodsi4>
     bd2:	7b 01       	movw	r14, r22
     bd4:	8c 01       	movw	r16, r24
     bd6:	c6 01       	movw	r24, r12
     bd8:	b5 01       	movw	r22, r10
     bda:	a4 01       	movw	r20, r8
     bdc:	93 01       	movw	r18, r6
     bde:	0e 94 11 15 	call	0x2a22	; 0x2a22 <__udivmodsi4>
     be2:	c9 01       	movw	r24, r18
     be4:	da 01       	movw	r26, r20
     be6:	3c 01       	movw	r6, r24
     be8:	4d 01       	movw	r8, r26
     bea:	c4 01       	movw	r24, r8
     bec:	b3 01       	movw	r22, r6
     bee:	65 96       	adiw	r28, 0x15	; 21
     bf0:	2c ad       	ldd	r18, Y+60	; 0x3c
     bf2:	3d ad       	ldd	r19, Y+61	; 0x3d
     bf4:	4e ad       	ldd	r20, Y+62	; 0x3e
     bf6:	5f ad       	ldd	r21, Y+63	; 0x3f
     bf8:	65 97       	sbiw	r28, 0x15	; 21
     bfa:	0e 94 f2 14 	call	0x29e4	; 0x29e4 <__mulsi3>
     bfe:	9b 01       	movw	r18, r22
     c00:	ac 01       	movw	r20, r24
     c02:	87 01       	movw	r16, r14
     c04:	ff 24       	eor	r15, r15
     c06:	ee 24       	eor	r14, r14
     c08:	8d 8d       	ldd	r24, Y+29	; 0x1d
     c0a:	9e 8d       	ldd	r25, Y+30	; 0x1e
     c0c:	af 8d       	ldd	r26, Y+31	; 0x1f
     c0e:	b8 a1       	ldd	r27, Y+32	; 0x20
     c10:	a0 70       	andi	r26, 0x00	; 0
     c12:	b0 70       	andi	r27, 0x00	; 0
     c14:	57 01       	movw	r10, r14
     c16:	68 01       	movw	r12, r16
     c18:	a8 2a       	or	r10, r24
     c1a:	b9 2a       	or	r11, r25
     c1c:	ca 2a       	or	r12, r26
     c1e:	db 2a       	or	r13, r27
     c20:	a2 16       	cp	r10, r18
     c22:	b3 06       	cpc	r11, r19
     c24:	c4 06       	cpc	r12, r20
     c26:	d5 06       	cpc	r13, r21
     c28:	00 f5       	brcc	.+64     	; 0xc6a <__stack+0x40b>
     c2a:	08 94       	sec
     c2c:	61 08       	sbc	r6, r1
     c2e:	71 08       	sbc	r7, r1
     c30:	81 08       	sbc	r8, r1
     c32:	91 08       	sbc	r9, r1
     c34:	6d a1       	ldd	r22, Y+37	; 0x25
     c36:	7e a1       	ldd	r23, Y+38	; 0x26
     c38:	8f a1       	ldd	r24, Y+39	; 0x27
     c3a:	98 a5       	ldd	r25, Y+40	; 0x28
     c3c:	a6 0e       	add	r10, r22
     c3e:	b7 1e       	adc	r11, r23
     c40:	c8 1e       	adc	r12, r24
     c42:	d9 1e       	adc	r13, r25
     c44:	a6 16       	cp	r10, r22
     c46:	b7 06       	cpc	r11, r23
     c48:	c8 06       	cpc	r12, r24
     c4a:	d9 06       	cpc	r13, r25
     c4c:	70 f0       	brcs	.+28     	; 0xc6a <__stack+0x40b>
     c4e:	a2 16       	cp	r10, r18
     c50:	b3 06       	cpc	r11, r19
     c52:	c4 06       	cpc	r12, r20
     c54:	d5 06       	cpc	r13, r21
     c56:	48 f4       	brcc	.+18     	; 0xc6a <__stack+0x40b>
     c58:	08 94       	sec
     c5a:	61 08       	sbc	r6, r1
     c5c:	71 08       	sbc	r7, r1
     c5e:	81 08       	sbc	r8, r1
     c60:	91 08       	sbc	r9, r1
     c62:	a6 0e       	add	r10, r22
     c64:	b7 1e       	adc	r11, r23
     c66:	c8 1e       	adc	r12, r24
     c68:	d9 1e       	adc	r13, r25
     c6a:	d6 01       	movw	r26, r12
     c6c:	c5 01       	movw	r24, r10
     c6e:	82 1b       	sub	r24, r18
     c70:	93 0b       	sbc	r25, r19
     c72:	a4 0b       	sbc	r26, r20
     c74:	b5 0b       	sbc	r27, r21
     c76:	89 8f       	std	Y+25, r24	; 0x19
     c78:	9a 8f       	std	Y+26, r25	; 0x1a
     c7a:	ab 8f       	std	Y+27, r26	; 0x1b
     c7c:	bc 8f       	std	Y+28, r27	; 0x1c
     c7e:	d1 01       	movw	r26, r2
     c80:	99 27       	eor	r25, r25
     c82:	88 27       	eor	r24, r24
     c84:	64 01       	movw	r12, r8
     c86:	53 01       	movw	r10, r6
     c88:	a8 2a       	or	r10, r24
     c8a:	b9 2a       	or	r11, r25
     c8c:	ca 2a       	or	r12, r26
     c8e:	db 2a       	or	r13, r27
     c90:	a9 aa       	std	Y+49, r10	; 0x31
     c92:	ba aa       	std	Y+50, r11	; 0x32
     c94:	cb aa       	std	Y+51, r12	; 0x33
     c96:	dc aa       	std	Y+52, r13	; 0x34
     c98:	86 01       	movw	r16, r12
     c9a:	75 01       	movw	r14, r10
     c9c:	2f ef       	ldi	r18, 0xFF	; 255
     c9e:	3f ef       	ldi	r19, 0xFF	; 255
     ca0:	40 e0       	ldi	r20, 0x00	; 0
     ca2:	50 e0       	ldi	r21, 0x00	; 0
     ca4:	e2 22       	and	r14, r18
     ca6:	f3 22       	and	r15, r19
     ca8:	04 23       	and	r16, r20
     caa:	15 23       	and	r17, r21
     cac:	a6 01       	movw	r20, r12
     cae:	66 27       	eor	r22, r22
     cb0:	77 27       	eor	r23, r23
     cb2:	6d 96       	adiw	r28, 0x1d	; 29
     cb4:	4c af       	std	Y+60, r20	; 0x3c
     cb6:	5d af       	std	Y+61, r21	; 0x3d
     cb8:	6e af       	std	Y+62, r22	; 0x3e
     cba:	7f af       	std	Y+63, r23	; 0x3f
     cbc:	6d 97       	sbiw	r28, 0x1d	; 29
     cbe:	a9 a0       	ldd	r10, Y+33	; 0x21
     cc0:	ba a0       	ldd	r11, Y+34	; 0x22
     cc2:	cb a0       	ldd	r12, Y+35	; 0x23
     cc4:	dc a0       	ldd	r13, Y+36	; 0x24
     cc6:	6f ef       	ldi	r22, 0xFF	; 255
     cc8:	7f ef       	ldi	r23, 0xFF	; 255
     cca:	80 e0       	ldi	r24, 0x00	; 0
     ccc:	90 e0       	ldi	r25, 0x00	; 0
     cce:	a6 22       	and	r10, r22
     cd0:	b7 22       	and	r11, r23
     cd2:	c8 22       	and	r12, r24
     cd4:	d9 22       	and	r13, r25
     cd6:	89 a1       	ldd	r24, Y+33	; 0x21
     cd8:	9a a1       	ldd	r25, Y+34	; 0x22
     cda:	ab a1       	ldd	r26, Y+35	; 0x23
     cdc:	bc a1       	ldd	r27, Y+36	; 0x24
     cde:	1d 01       	movw	r2, r26
     ce0:	44 24       	eor	r4, r4
     ce2:	55 24       	eor	r5, r5
     ce4:	c8 01       	movw	r24, r16
     ce6:	b7 01       	movw	r22, r14
     ce8:	a6 01       	movw	r20, r12
     cea:	95 01       	movw	r18, r10
     cec:	0e 94 f2 14 	call	0x29e4	; 0x29e4 <__mulsi3>
     cf0:	69 96       	adiw	r28, 0x19	; 25
     cf2:	6c af       	std	Y+60, r22	; 0x3c
     cf4:	7d af       	std	Y+61, r23	; 0x3d
     cf6:	8e af       	std	Y+62, r24	; 0x3e
     cf8:	9f af       	std	Y+63, r25	; 0x3f
     cfa:	69 97       	sbiw	r28, 0x19	; 25
     cfc:	c8 01       	movw	r24, r16
     cfe:	b7 01       	movw	r22, r14
     d00:	a2 01       	movw	r20, r4
     d02:	91 01       	movw	r18, r2
     d04:	0e 94 f2 14 	call	0x29e4	; 0x29e4 <__mulsi3>
     d08:	3b 01       	movw	r6, r22
     d0a:	4c 01       	movw	r8, r24
     d0c:	6d 96       	adiw	r28, 0x1d	; 29
     d0e:	6c ad       	ldd	r22, Y+60	; 0x3c
     d10:	7d ad       	ldd	r23, Y+61	; 0x3d
     d12:	8e ad       	ldd	r24, Y+62	; 0x3e
     d14:	9f ad       	ldd	r25, Y+63	; 0x3f
     d16:	6d 97       	sbiw	r28, 0x1d	; 29
     d18:	a6 01       	movw	r20, r12
     d1a:	95 01       	movw	r18, r10
     d1c:	0e 94 f2 14 	call	0x29e4	; 0x29e4 <__mulsi3>
     d20:	7b 01       	movw	r14, r22
     d22:	8c 01       	movw	r16, r24
     d24:	6d 96       	adiw	r28, 0x1d	; 29
     d26:	6c ad       	ldd	r22, Y+60	; 0x3c
     d28:	7d ad       	ldd	r23, Y+61	; 0x3d
     d2a:	8e ad       	ldd	r24, Y+62	; 0x3e
     d2c:	9f ad       	ldd	r25, Y+63	; 0x3f
     d2e:	6d 97       	sbiw	r28, 0x1d	; 29
     d30:	a2 01       	movw	r20, r4
     d32:	91 01       	movw	r18, r2
     d34:	0e 94 f2 14 	call	0x29e4	; 0x29e4 <__mulsi3>
     d38:	5b 01       	movw	r10, r22
     d3a:	6c 01       	movw	r12, r24
     d3c:	a8 01       	movw	r20, r16
     d3e:	97 01       	movw	r18, r14
     d40:	26 0d       	add	r18, r6
     d42:	37 1d       	adc	r19, r7
     d44:	48 1d       	adc	r20, r8
     d46:	59 1d       	adc	r21, r9
     d48:	69 96       	adiw	r28, 0x19	; 25
     d4a:	6c ac       	ldd	r6, Y+60	; 0x3c
     d4c:	7d ac       	ldd	r7, Y+61	; 0x3d
     d4e:	8e ac       	ldd	r8, Y+62	; 0x3e
     d50:	9f ac       	ldd	r9, Y+63	; 0x3f
     d52:	69 97       	sbiw	r28, 0x19	; 25
     d54:	c4 01       	movw	r24, r8
     d56:	aa 27       	eor	r26, r26
     d58:	bb 27       	eor	r27, r27
     d5a:	28 0f       	add	r18, r24
     d5c:	39 1f       	adc	r19, r25
     d5e:	4a 1f       	adc	r20, r26
     d60:	5b 1f       	adc	r21, r27
     d62:	2e 15       	cp	r18, r14
     d64:	3f 05       	cpc	r19, r15
     d66:	40 07       	cpc	r20, r16
     d68:	51 07       	cpc	r21, r17
     d6a:	48 f4       	brcc	.+18     	; 0xd7e <__stack+0x51f>
     d6c:	e1 2c       	mov	r14, r1
     d6e:	f1 2c       	mov	r15, r1
     d70:	61 e0       	ldi	r22, 0x01	; 1
     d72:	06 2f       	mov	r16, r22
     d74:	11 2d       	mov	r17, r1
     d76:	ae 0c       	add	r10, r14
     d78:	bf 1c       	adc	r11, r15
     d7a:	c0 1e       	adc	r12, r16
     d7c:	d1 1e       	adc	r13, r17
     d7e:	ca 01       	movw	r24, r20
     d80:	aa 27       	eor	r26, r26
     d82:	bb 27       	eor	r27, r27
     d84:	bc 01       	movw	r22, r24
     d86:	cd 01       	movw	r24, r26
     d88:	6a 0d       	add	r22, r10
     d8a:	7b 1d       	adc	r23, r11
     d8c:	8c 1d       	adc	r24, r12
     d8e:	9d 1d       	adc	r25, r13
     d90:	69 8c       	ldd	r6, Y+25	; 0x19
     d92:	7a 8c       	ldd	r7, Y+26	; 0x1a
     d94:	8b 8c       	ldd	r8, Y+27	; 0x1b
     d96:	9c 8c       	ldd	r9, Y+28	; 0x1c
     d98:	66 16       	cp	r6, r22
     d9a:	77 06       	cpc	r7, r23
     d9c:	88 06       	cpc	r8, r24
     d9e:	99 06       	cpc	r9, r25
     da0:	40 f1       	brcs	.+80     	; 0xdf2 <__stack+0x593>
     da2:	66 15       	cp	r22, r6
     da4:	77 05       	cpc	r23, r7
     da6:	88 05       	cpc	r24, r8
     da8:	99 05       	cpc	r25, r9
     daa:	09 f0       	breq	.+2      	; 0xdae <__stack+0x54f>
     dac:	43 c0       	rjmp	.+134    	; 0xe34 <__stack+0x5d5>
     dae:	d9 01       	movw	r26, r18
     db0:	99 27       	eor	r25, r25
     db2:	88 27       	eor	r24, r24
     db4:	69 96       	adiw	r28, 0x19	; 25
     db6:	2c ad       	ldd	r18, Y+60	; 0x3c
     db8:	3d ad       	ldd	r19, Y+61	; 0x3d
     dba:	4e ad       	ldd	r20, Y+62	; 0x3e
     dbc:	5f ad       	ldd	r21, Y+63	; 0x3f
     dbe:	69 97       	sbiw	r28, 0x19	; 25
     dc0:	40 70       	andi	r20, 0x00	; 0
     dc2:	50 70       	andi	r21, 0x00	; 0
     dc4:	82 0f       	add	r24, r18
     dc6:	93 1f       	adc	r25, r19
     dc8:	a4 1f       	adc	r26, r20
     dca:	b5 1f       	adc	r27, r21
     dcc:	2d a5       	ldd	r18, Y+45	; 0x2d
     dce:	3e a5       	ldd	r19, Y+46	; 0x2e
     dd0:	4f a5       	ldd	r20, Y+47	; 0x2f
     dd2:	58 a9       	ldd	r21, Y+48	; 0x30
     dd4:	6e 96       	adiw	r28, 0x1e	; 30
     dd6:	0f ac       	ldd	r0, Y+63	; 0x3f
     dd8:	6e 97       	sbiw	r28, 0x1e	; 30
     dda:	04 c0       	rjmp	.+8      	; 0xde4 <__stack+0x585>
     ddc:	22 0f       	add	r18, r18
     dde:	33 1f       	adc	r19, r19
     de0:	44 1f       	adc	r20, r20
     de2:	55 1f       	adc	r21, r21
     de4:	0a 94       	dec	r0
     de6:	d2 f7       	brpl	.-12     	; 0xddc <__stack+0x57d>
     de8:	28 17       	cp	r18, r24
     dea:	39 07       	cpc	r19, r25
     dec:	4a 07       	cpc	r20, r26
     dee:	5b 07       	cpc	r21, r27
     df0:	08 f5       	brcc	.+66     	; 0xe34 <__stack+0x5d5>
     df2:	09 a9       	ldd	r16, Y+49	; 0x31
     df4:	1a a9       	ldd	r17, Y+50	; 0x32
     df6:	2b a9       	ldd	r18, Y+51	; 0x33
     df8:	3c a9       	ldd	r19, Y+52	; 0x34
     dfa:	01 50       	subi	r16, 0x01	; 1
     dfc:	10 40       	sbci	r17, 0x00	; 0
     dfe:	20 40       	sbci	r18, 0x00	; 0
     e00:	30 40       	sbci	r19, 0x00	; 0
     e02:	09 ab       	std	Y+49, r16	; 0x31
     e04:	1a ab       	std	Y+50, r17	; 0x32
     e06:	2b ab       	std	Y+51, r18	; 0x33
     e08:	3c ab       	std	Y+52, r19	; 0x34
     e0a:	14 c0       	rjmp	.+40     	; 0xe34 <__stack+0x5d5>
     e0c:	66 24       	eor	r6, r6
     e0e:	77 24       	eor	r7, r7
     e10:	43 01       	movw	r8, r6
     e12:	21 e0       	ldi	r18, 0x01	; 1
     e14:	30 e0       	ldi	r19, 0x00	; 0
     e16:	40 e0       	ldi	r20, 0x00	; 0
     e18:	50 e0       	ldi	r21, 0x00	; 0
     e1a:	29 ab       	std	Y+49, r18	; 0x31
     e1c:	3a ab       	std	Y+50, r19	; 0x32
     e1e:	4b ab       	std	Y+51, r20	; 0x33
     e20:	5c ab       	std	Y+52, r21	; 0x34
     e22:	0b c0       	rjmp	.+22     	; 0xe3a <__stack+0x5db>
     e24:	66 24       	eor	r6, r6
     e26:	77 24       	eor	r7, r7
     e28:	43 01       	movw	r8, r6
     e2a:	19 aa       	std	Y+49, r1	; 0x31
     e2c:	1a aa       	std	Y+50, r1	; 0x32
     e2e:	1b aa       	std	Y+51, r1	; 0x33
     e30:	1c aa       	std	Y+52, r1	; 0x34
     e32:	03 c0       	rjmp	.+6      	; 0xe3a <__stack+0x5db>
     e34:	66 24       	eor	r6, r6
     e36:	77 24       	eor	r7, r7
     e38:	43 01       	movw	r8, r6
     e3a:	fe 01       	movw	r30, r28
     e3c:	71 96       	adiw	r30, 0x11	; 17
     e3e:	88 e0       	ldi	r24, 0x08	; 8
     e40:	df 01       	movw	r26, r30
     e42:	1d 92       	st	X+, r1
     e44:	8a 95       	dec	r24
     e46:	e9 f7       	brne	.-6      	; 0xe42 <__stack+0x5e3>
     e48:	a9 a8       	ldd	r10, Y+49	; 0x31
     e4a:	ba a8       	ldd	r11, Y+50	; 0x32
     e4c:	cb a8       	ldd	r12, Y+51	; 0x33
     e4e:	dc a8       	ldd	r13, Y+52	; 0x34
     e50:	a9 8a       	std	Y+17, r10	; 0x11
     e52:	ba 8a       	std	Y+18, r11	; 0x12
     e54:	cb 8a       	std	Y+19, r12	; 0x13
     e56:	dc 8a       	std	Y+20, r13	; 0x14
     e58:	6d 8a       	std	Y+21, r6	; 0x15
     e5a:	7e 8a       	std	Y+22, r7	; 0x16
     e5c:	8f 8a       	std	Y+23, r8	; 0x17
     e5e:	98 8e       	std	Y+24, r9	; 0x18
     e60:	29 a9       	ldd	r18, Y+49	; 0x31
     e62:	3a 89       	ldd	r19, Y+18	; 0x12
     e64:	4b 89       	ldd	r20, Y+19	; 0x13
     e66:	5c 89       	ldd	r21, Y+20	; 0x14
     e68:	66 2d       	mov	r22, r6
     e6a:	7e 89       	ldd	r23, Y+22	; 0x16
     e6c:	8f 89       	ldd	r24, Y+23	; 0x17
     e6e:	98 8d       	ldd	r25, Y+24	; 0x18
     e70:	c2 5a       	subi	r28, 0xA2	; 162
     e72:	df 4f       	sbci	r29, 0xFF	; 255
     e74:	e2 e1       	ldi	r30, 0x12	; 18
     e76:	0c 94 4f 15 	jmp	0x2a9e	; 0x2a9e <__epilogue_restores__>

00000e7a <__umoddi3>:
     e7a:	ab e5       	ldi	r26, 0x5B	; 91
     e7c:	b0 e0       	ldi	r27, 0x00	; 0
     e7e:	e3 e4       	ldi	r30, 0x43	; 67
     e80:	f7 e0       	ldi	r31, 0x07	; 7
     e82:	0c 94 33 15 	jmp	0x2a66	; 0x2a66 <__prologue_saves__>
     e86:	a8 e0       	ldi	r26, 0x08	; 8
     e88:	4e 01       	movw	r8, r28
     e8a:	08 94       	sec
     e8c:	81 1c       	adc	r8, r1
     e8e:	91 1c       	adc	r9, r1
     e90:	f4 01       	movw	r30, r8
     e92:	6a 2e       	mov	r6, r26
     e94:	11 92       	st	Z+, r1
     e96:	6a 94       	dec	r6
     e98:	e9 f7       	brne	.-6      	; 0xe94 <__umoddi3+0x1a>
     e9a:	29 83       	std	Y+1, r18	; 0x01
     e9c:	3a 83       	std	Y+2, r19	; 0x02
     e9e:	4b 83       	std	Y+3, r20	; 0x03
     ea0:	5c 83       	std	Y+4, r21	; 0x04
     ea2:	6d 83       	std	Y+5, r22	; 0x05
     ea4:	7e 83       	std	Y+6, r23	; 0x06
     ea6:	8f 83       	std	Y+7, r24	; 0x07
     ea8:	98 87       	std	Y+8, r25	; 0x08
     eaa:	ce 01       	movw	r24, r28
     eac:	09 96       	adiw	r24, 0x09	; 9
     eae:	fc 01       	movw	r30, r24
     eb0:	11 92       	st	Z+, r1
     eb2:	aa 95       	dec	r26
     eb4:	e9 f7       	brne	.-6      	; 0xeb0 <__umoddi3+0x36>
     eb6:	a9 86       	std	Y+9, r10	; 0x09
     eb8:	ba 86       	std	Y+10, r11	; 0x0a
     eba:	cb 86       	std	Y+11, r12	; 0x0b
     ebc:	dc 86       	std	Y+12, r13	; 0x0c
     ebe:	ed 86       	std	Y+13, r14	; 0x0d
     ec0:	fe 86       	std	Y+14, r15	; 0x0e
     ec2:	0f 87       	std	Y+15, r16	; 0x0f
     ec4:	18 8b       	std	Y+16, r17	; 0x10
     ec6:	29 84       	ldd	r2, Y+9	; 0x09
     ec8:	3a 84       	ldd	r3, Y+10	; 0x0a
     eca:	4b 84       	ldd	r4, Y+11	; 0x0b
     ecc:	5c 84       	ldd	r5, Y+12	; 0x0c
     ece:	ad 84       	ldd	r10, Y+13	; 0x0d
     ed0:	be 84       	ldd	r11, Y+14	; 0x0e
     ed2:	cf 84       	ldd	r12, Y+15	; 0x0f
     ed4:	d8 88       	ldd	r13, Y+16	; 0x10
     ed6:	29 81       	ldd	r18, Y+1	; 0x01
     ed8:	3a 81       	ldd	r19, Y+2	; 0x02
     eda:	4b 81       	ldd	r20, Y+3	; 0x03
     edc:	5c 81       	ldd	r21, Y+4	; 0x04
     ede:	69 96       	adiw	r28, 0x19	; 25
     ee0:	2f af       	std	Y+63, r18	; 0x3f
     ee2:	69 97       	sbiw	r28, 0x19	; 25
     ee4:	6a 96       	adiw	r28, 0x1a	; 26
     ee6:	3f af       	std	Y+63, r19	; 0x3f
     ee8:	6a 97       	sbiw	r28, 0x1a	; 26
     eea:	6b 96       	adiw	r28, 0x1b	; 27
     eec:	4f af       	std	Y+63, r20	; 0x3f
     eee:	6b 97       	sbiw	r28, 0x1b	; 27
     ef0:	6c 96       	adiw	r28, 0x1c	; 28
     ef2:	5f af       	std	Y+63, r21	; 0x3f
     ef4:	6c 97       	sbiw	r28, 0x1c	; 28
     ef6:	6c 96       	adiw	r28, 0x1c	; 28
     ef8:	6c ac       	ldd	r6, Y+60	; 0x3c
     efa:	7d ac       	ldd	r7, Y+61	; 0x3d
     efc:	8e ac       	ldd	r8, Y+62	; 0x3e
     efe:	9f ac       	ldd	r9, Y+63	; 0x3f
     f00:	6c 97       	sbiw	r28, 0x1c	; 28
     f02:	69 aa       	std	Y+49, r6	; 0x31
     f04:	7a aa       	std	Y+50, r7	; 0x32
     f06:	8b aa       	std	Y+51, r8	; 0x33
     f08:	9c aa       	std	Y+52, r9	; 0x34
     f0a:	6d 81       	ldd	r22, Y+5	; 0x05
     f0c:	7e 81       	ldd	r23, Y+6	; 0x06
     f0e:	8f 81       	ldd	r24, Y+7	; 0x07
     f10:	98 85       	ldd	r25, Y+8	; 0x08
     f12:	3b 01       	movw	r6, r22
     f14:	4c 01       	movw	r8, r24
     f16:	6d aa       	std	Y+53, r6	; 0x35
     f18:	7e aa       	std	Y+54, r7	; 0x36
     f1a:	8f aa       	std	Y+55, r8	; 0x37
     f1c:	98 ae       	std	Y+56, r9	; 0x38
     f1e:	a1 14       	cp	r10, r1
     f20:	b1 04       	cpc	r11, r1
     f22:	c1 04       	cpc	r12, r1
     f24:	d1 04       	cpc	r13, r1
     f26:	09 f0       	breq	.+2      	; 0xf2a <__umoddi3+0xb0>
     f28:	04 c3       	rjmp	.+1544   	; 0x1532 <__umoddi3+0x6b8>
     f2a:	62 14       	cp	r6, r2
     f2c:	73 04       	cpc	r7, r3
     f2e:	84 04       	cpc	r8, r4
     f30:	95 04       	cpc	r9, r5
     f32:	08 f0       	brcs	.+2      	; 0xf36 <__umoddi3+0xbc>
     f34:	00 c1       	rjmp	.+512    	; 0x1136 <__umoddi3+0x2bc>
     f36:	00 e0       	ldi	r16, 0x00	; 0
     f38:	20 16       	cp	r2, r16
     f3a:	00 e0       	ldi	r16, 0x00	; 0
     f3c:	30 06       	cpc	r3, r16
     f3e:	01 e0       	ldi	r16, 0x01	; 1
     f40:	40 06       	cpc	r4, r16
     f42:	00 e0       	ldi	r16, 0x00	; 0
     f44:	50 06       	cpc	r5, r16
     f46:	88 f4       	brcc	.+34     	; 0xf6a <__umoddi3+0xf0>
     f48:	1f ef       	ldi	r17, 0xFF	; 255
     f4a:	21 16       	cp	r2, r17
     f4c:	31 04       	cpc	r3, r1
     f4e:	41 04       	cpc	r4, r1
     f50:	51 04       	cpc	r5, r1
     f52:	39 f0       	breq	.+14     	; 0xf62 <__umoddi3+0xe8>
     f54:	30 f0       	brcs	.+12     	; 0xf62 <__umoddi3+0xe8>
     f56:	88 e0       	ldi	r24, 0x08	; 8
     f58:	e8 2e       	mov	r14, r24
     f5a:	f1 2c       	mov	r15, r1
     f5c:	01 2d       	mov	r16, r1
     f5e:	11 2d       	mov	r17, r1
     f60:	18 c0       	rjmp	.+48     	; 0xf92 <__umoddi3+0x118>
     f62:	ee 24       	eor	r14, r14
     f64:	ff 24       	eor	r15, r15
     f66:	87 01       	movw	r16, r14
     f68:	14 c0       	rjmp	.+40     	; 0xf92 <__umoddi3+0x118>
     f6a:	40 e0       	ldi	r20, 0x00	; 0
     f6c:	24 16       	cp	r2, r20
     f6e:	40 e0       	ldi	r20, 0x00	; 0
     f70:	34 06       	cpc	r3, r20
     f72:	40 e0       	ldi	r20, 0x00	; 0
     f74:	44 06       	cpc	r4, r20
     f76:	41 e0       	ldi	r20, 0x01	; 1
     f78:	54 06       	cpc	r5, r20
     f7a:	30 f0       	brcs	.+12     	; 0xf88 <__umoddi3+0x10e>
     f7c:	b8 e1       	ldi	r27, 0x18	; 24
     f7e:	eb 2e       	mov	r14, r27
     f80:	f1 2c       	mov	r15, r1
     f82:	01 2d       	mov	r16, r1
     f84:	11 2d       	mov	r17, r1
     f86:	05 c0       	rjmp	.+10     	; 0xf92 <__umoddi3+0x118>
     f88:	a0 e1       	ldi	r26, 0x10	; 16
     f8a:	ea 2e       	mov	r14, r26
     f8c:	f1 2c       	mov	r15, r1
     f8e:	01 2d       	mov	r16, r1
     f90:	11 2d       	mov	r17, r1
     f92:	d2 01       	movw	r26, r4
     f94:	c1 01       	movw	r24, r2
     f96:	0e 2c       	mov	r0, r14
     f98:	04 c0       	rjmp	.+8      	; 0xfa2 <__umoddi3+0x128>
     f9a:	b6 95       	lsr	r27
     f9c:	a7 95       	ror	r26
     f9e:	97 95       	ror	r25
     fa0:	87 95       	ror	r24
     fa2:	0a 94       	dec	r0
     fa4:	d2 f7       	brpl	.-12     	; 0xf9a <__umoddi3+0x120>
     fa6:	80 5a       	subi	r24, 0xA0	; 160
     fa8:	9f 4f       	sbci	r25, 0xFF	; 255
     faa:	dc 01       	movw	r26, r24
     fac:	2c 91       	ld	r18, X
     fae:	80 e2       	ldi	r24, 0x20	; 32
     fb0:	90 e0       	ldi	r25, 0x00	; 0
     fb2:	a0 e0       	ldi	r26, 0x00	; 0
     fb4:	b0 e0       	ldi	r27, 0x00	; 0
     fb6:	8e 19       	sub	r24, r14
     fb8:	9f 09       	sbc	r25, r15
     fba:	a0 0b       	sbc	r26, r16
     fbc:	b1 0b       	sbc	r27, r17
     fbe:	5c 01       	movw	r10, r24
     fc0:	6d 01       	movw	r12, r26
     fc2:	a2 1a       	sub	r10, r18
     fc4:	b1 08       	sbc	r11, r1
     fc6:	c1 08       	sbc	r12, r1
     fc8:	d1 08       	sbc	r13, r1
     fca:	a9 ae       	std	Y+57, r10	; 0x39
     fcc:	ba ae       	std	Y+58, r11	; 0x3a
     fce:	cb ae       	std	Y+59, r12	; 0x3b
     fd0:	dc ae       	std	Y+60, r13	; 0x3c
     fd2:	a1 14       	cp	r10, r1
     fd4:	b1 04       	cpc	r11, r1
     fd6:	c1 04       	cpc	r12, r1
     fd8:	d1 04       	cpc	r13, r1
     fda:	09 f4       	brne	.+2      	; 0xfde <__umoddi3+0x164>
     fdc:	3f c0       	rjmp	.+126    	; 0x105c <__umoddi3+0x1e2>
     fde:	69 ad       	ldd	r22, Y+57	; 0x39
     fe0:	06 2e       	mov	r0, r22
     fe2:	04 c0       	rjmp	.+8      	; 0xfec <__umoddi3+0x172>
     fe4:	22 0c       	add	r2, r2
     fe6:	33 1c       	adc	r3, r3
     fe8:	44 1c       	adc	r4, r4
     fea:	55 1c       	adc	r5, r5
     fec:	0a 94       	dec	r0
     fee:	d2 f7       	brpl	.-12     	; 0xfe4 <__umoddi3+0x16a>
     ff0:	a4 01       	movw	r20, r8
     ff2:	93 01       	movw	r18, r6
     ff4:	06 2e       	mov	r0, r22
     ff6:	04 c0       	rjmp	.+8      	; 0x1000 <__umoddi3+0x186>
     ff8:	22 0f       	add	r18, r18
     ffa:	33 1f       	adc	r19, r19
     ffc:	44 1f       	adc	r20, r20
     ffe:	55 1f       	adc	r21, r21
    1000:	0a 94       	dec	r0
    1002:	d2 f7       	brpl	.-12     	; 0xff8 <__umoddi3+0x17e>
    1004:	80 e2       	ldi	r24, 0x20	; 32
    1006:	90 e0       	ldi	r25, 0x00	; 0
    1008:	8a 19       	sub	r24, r10
    100a:	9b 09       	sbc	r25, r11
    100c:	6c 96       	adiw	r28, 0x1c	; 28
    100e:	cc ac       	ldd	r12, Y+60	; 0x3c
    1010:	dd ac       	ldd	r13, Y+61	; 0x3d
    1012:	ee ac       	ldd	r14, Y+62	; 0x3e
    1014:	ff ac       	ldd	r15, Y+63	; 0x3f
    1016:	6c 97       	sbiw	r28, 0x1c	; 28
    1018:	04 c0       	rjmp	.+8      	; 0x1022 <__umoddi3+0x1a8>
    101a:	f6 94       	lsr	r15
    101c:	e7 94       	ror	r14
    101e:	d7 94       	ror	r13
    1020:	c7 94       	ror	r12
    1022:	8a 95       	dec	r24
    1024:	d2 f7       	brpl	.-12     	; 0x101a <__umoddi3+0x1a0>
    1026:	87 01       	movw	r16, r14
    1028:	76 01       	movw	r14, r12
    102a:	e2 2a       	or	r14, r18
    102c:	f3 2a       	or	r15, r19
    102e:	04 2b       	or	r16, r20
    1030:	15 2b       	or	r17, r21
    1032:	ed aa       	std	Y+53, r14	; 0x35
    1034:	fe aa       	std	Y+54, r15	; 0x36
    1036:	0f ab       	std	Y+55, r16	; 0x37
    1038:	18 af       	std	Y+56, r17	; 0x38
    103a:	6c 96       	adiw	r28, 0x1c	; 28
    103c:	8c ad       	ldd	r24, Y+60	; 0x3c
    103e:	9d ad       	ldd	r25, Y+61	; 0x3d
    1040:	ae ad       	ldd	r26, Y+62	; 0x3e
    1042:	bf ad       	ldd	r27, Y+63	; 0x3f
    1044:	6c 97       	sbiw	r28, 0x1c	; 28
    1046:	04 c0       	rjmp	.+8      	; 0x1050 <__umoddi3+0x1d6>
    1048:	88 0f       	add	r24, r24
    104a:	99 1f       	adc	r25, r25
    104c:	aa 1f       	adc	r26, r26
    104e:	bb 1f       	adc	r27, r27
    1050:	6a 95       	dec	r22
    1052:	d2 f7       	brpl	.-12     	; 0x1048 <__umoddi3+0x1ce>
    1054:	89 ab       	std	Y+49, r24	; 0x31
    1056:	9a ab       	std	Y+50, r25	; 0x32
    1058:	ab ab       	std	Y+51, r26	; 0x33
    105a:	bc ab       	std	Y+52, r27	; 0x34
    105c:	32 01       	movw	r6, r4
    105e:	88 24       	eor	r8, r8
    1060:	99 24       	eor	r9, r9
    1062:	b2 01       	movw	r22, r4
    1064:	a1 01       	movw	r20, r2
    1066:	60 70       	andi	r22, 0x00	; 0
    1068:	70 70       	andi	r23, 0x00	; 0
    106a:	21 96       	adiw	r28, 0x01	; 1
    106c:	4c af       	std	Y+60, r20	; 0x3c
    106e:	5d af       	std	Y+61, r21	; 0x3d
    1070:	6e af       	std	Y+62, r22	; 0x3e
    1072:	7f af       	std	Y+63, r23	; 0x3f
    1074:	21 97       	sbiw	r28, 0x01	; 1
    1076:	6d a9       	ldd	r22, Y+53	; 0x35
    1078:	7e a9       	ldd	r23, Y+54	; 0x36
    107a:	8f a9       	ldd	r24, Y+55	; 0x37
    107c:	98 ad       	ldd	r25, Y+56	; 0x38
    107e:	a4 01       	movw	r20, r8
    1080:	93 01       	movw	r18, r6
    1082:	0e 94 11 15 	call	0x2a22	; 0x2a22 <__udivmodsi4>
    1086:	7b 01       	movw	r14, r22
    1088:	8c 01       	movw	r16, r24
    108a:	6d a9       	ldd	r22, Y+53	; 0x35
    108c:	7e a9       	ldd	r23, Y+54	; 0x36
    108e:	8f a9       	ldd	r24, Y+55	; 0x37
    1090:	98 ad       	ldd	r25, Y+56	; 0x38
    1092:	a4 01       	movw	r20, r8
    1094:	93 01       	movw	r18, r6
    1096:	0e 94 11 15 	call	0x2a22	; 0x2a22 <__udivmodsi4>
    109a:	ca 01       	movw	r24, r20
    109c:	b9 01       	movw	r22, r18
    109e:	21 96       	adiw	r28, 0x01	; 1
    10a0:	2c ad       	ldd	r18, Y+60	; 0x3c
    10a2:	3d ad       	ldd	r19, Y+61	; 0x3d
    10a4:	4e ad       	ldd	r20, Y+62	; 0x3e
    10a6:	5f ad       	ldd	r21, Y+63	; 0x3f
    10a8:	21 97       	sbiw	r28, 0x01	; 1
    10aa:	0e 94 f2 14 	call	0x29e4	; 0x29e4 <__mulsi3>
    10ae:	9b 01       	movw	r18, r22
    10b0:	ac 01       	movw	r20, r24
    10b2:	87 01       	movw	r16, r14
    10b4:	ff 24       	eor	r15, r15
    10b6:	ee 24       	eor	r14, r14
    10b8:	a9 a8       	ldd	r10, Y+49	; 0x31
    10ba:	ba a8       	ldd	r11, Y+50	; 0x32
    10bc:	cb a8       	ldd	r12, Y+51	; 0x33
    10be:	dc a8       	ldd	r13, Y+52	; 0x34
    10c0:	c6 01       	movw	r24, r12
    10c2:	aa 27       	eor	r26, r26
    10c4:	bb 27       	eor	r27, r27
    10c6:	57 01       	movw	r10, r14
    10c8:	68 01       	movw	r12, r16
    10ca:	a8 2a       	or	r10, r24
    10cc:	b9 2a       	or	r11, r25
    10ce:	ca 2a       	or	r12, r26
    10d0:	db 2a       	or	r13, r27
    10d2:	a2 16       	cp	r10, r18
    10d4:	b3 06       	cpc	r11, r19
    10d6:	c4 06       	cpc	r12, r20
    10d8:	d5 06       	cpc	r13, r21
    10da:	90 f4       	brcc	.+36     	; 0x1100 <__umoddi3+0x286>
    10dc:	a2 0c       	add	r10, r2
    10de:	b3 1c       	adc	r11, r3
    10e0:	c4 1c       	adc	r12, r4
    10e2:	d5 1c       	adc	r13, r5
    10e4:	a2 14       	cp	r10, r2
    10e6:	b3 04       	cpc	r11, r3
    10e8:	c4 04       	cpc	r12, r4
    10ea:	d5 04       	cpc	r13, r5
    10ec:	48 f0       	brcs	.+18     	; 0x1100 <__umoddi3+0x286>
    10ee:	a2 16       	cp	r10, r18
    10f0:	b3 06       	cpc	r11, r19
    10f2:	c4 06       	cpc	r12, r20
    10f4:	d5 06       	cpc	r13, r21
    10f6:	20 f4       	brcc	.+8      	; 0x1100 <__umoddi3+0x286>
    10f8:	a2 0c       	add	r10, r2
    10fa:	b3 1c       	adc	r11, r3
    10fc:	c4 1c       	adc	r12, r4
    10fe:	d5 1c       	adc	r13, r5
    1100:	a2 1a       	sub	r10, r18
    1102:	b3 0a       	sbc	r11, r19
    1104:	c4 0a       	sbc	r12, r20
    1106:	d5 0a       	sbc	r13, r21
    1108:	c6 01       	movw	r24, r12
    110a:	b5 01       	movw	r22, r10
    110c:	a4 01       	movw	r20, r8
    110e:	93 01       	movw	r18, r6
    1110:	0e 94 11 15 	call	0x2a22	; 0x2a22 <__udivmodsi4>
    1114:	7b 01       	movw	r14, r22
    1116:	8c 01       	movw	r16, r24
    1118:	c6 01       	movw	r24, r12
    111a:	b5 01       	movw	r22, r10
    111c:	a4 01       	movw	r20, r8
    111e:	93 01       	movw	r18, r6
    1120:	0e 94 11 15 	call	0x2a22	; 0x2a22 <__udivmodsi4>
    1124:	ca 01       	movw	r24, r20
    1126:	b9 01       	movw	r22, r18
    1128:	21 96       	adiw	r28, 0x01	; 1
    112a:	2c ad       	ldd	r18, Y+60	; 0x3c
    112c:	3d ad       	ldd	r19, Y+61	; 0x3d
    112e:	4e ad       	ldd	r20, Y+62	; 0x3e
    1130:	5f ad       	ldd	r21, Y+63	; 0x3f
    1132:	21 97       	sbiw	r28, 0x01	; 1
    1134:	ba c1       	rjmp	.+884    	; 0x14aa <__umoddi3+0x630>
    1136:	21 14       	cp	r2, r1
    1138:	31 04       	cpc	r3, r1
    113a:	41 04       	cpc	r4, r1
    113c:	51 04       	cpc	r5, r1
    113e:	71 f4       	brne	.+28     	; 0x115c <__umoddi3+0x2e2>
    1140:	61 e0       	ldi	r22, 0x01	; 1
    1142:	70 e0       	ldi	r23, 0x00	; 0
    1144:	80 e0       	ldi	r24, 0x00	; 0
    1146:	90 e0       	ldi	r25, 0x00	; 0
    1148:	20 e0       	ldi	r18, 0x00	; 0
    114a:	30 e0       	ldi	r19, 0x00	; 0
    114c:	40 e0       	ldi	r20, 0x00	; 0
    114e:	50 e0       	ldi	r21, 0x00	; 0
    1150:	0e 94 11 15 	call	0x2a22	; 0x2a22 <__udivmodsi4>
    1154:	c9 01       	movw	r24, r18
    1156:	da 01       	movw	r26, r20
    1158:	1c 01       	movw	r2, r24
    115a:	2d 01       	movw	r4, r26
    115c:	00 e0       	ldi	r16, 0x00	; 0
    115e:	20 16       	cp	r2, r16
    1160:	00 e0       	ldi	r16, 0x00	; 0
    1162:	30 06       	cpc	r3, r16
    1164:	01 e0       	ldi	r16, 0x01	; 1
    1166:	40 06       	cpc	r4, r16
    1168:	00 e0       	ldi	r16, 0x00	; 0
    116a:	50 06       	cpc	r5, r16
    116c:	88 f4       	brcc	.+34     	; 0x1190 <__umoddi3+0x316>
    116e:	1f ef       	ldi	r17, 0xFF	; 255
    1170:	21 16       	cp	r2, r17
    1172:	31 04       	cpc	r3, r1
    1174:	41 04       	cpc	r4, r1
    1176:	51 04       	cpc	r5, r1
    1178:	39 f0       	breq	.+14     	; 0x1188 <__umoddi3+0x30e>
    117a:	30 f0       	brcs	.+12     	; 0x1188 <__umoddi3+0x30e>
    117c:	68 e0       	ldi	r22, 0x08	; 8
    117e:	e6 2e       	mov	r14, r22
    1180:	f1 2c       	mov	r15, r1
    1182:	01 2d       	mov	r16, r1
    1184:	11 2d       	mov	r17, r1
    1186:	18 c0       	rjmp	.+48     	; 0x11b8 <__umoddi3+0x33e>
    1188:	ee 24       	eor	r14, r14
    118a:	ff 24       	eor	r15, r15
    118c:	87 01       	movw	r16, r14
    118e:	14 c0       	rjmp	.+40     	; 0x11b8 <__umoddi3+0x33e>
    1190:	40 e0       	ldi	r20, 0x00	; 0
    1192:	24 16       	cp	r2, r20
    1194:	40 e0       	ldi	r20, 0x00	; 0
    1196:	34 06       	cpc	r3, r20
    1198:	40 e0       	ldi	r20, 0x00	; 0
    119a:	44 06       	cpc	r4, r20
    119c:	41 e0       	ldi	r20, 0x01	; 1
    119e:	54 06       	cpc	r5, r20
    11a0:	30 f0       	brcs	.+12     	; 0x11ae <__umoddi3+0x334>
    11a2:	58 e1       	ldi	r21, 0x18	; 24
    11a4:	e5 2e       	mov	r14, r21
    11a6:	f1 2c       	mov	r15, r1
    11a8:	01 2d       	mov	r16, r1
    11aa:	11 2d       	mov	r17, r1
    11ac:	05 c0       	rjmp	.+10     	; 0x11b8 <__umoddi3+0x33e>
    11ae:	40 e1       	ldi	r20, 0x10	; 16
    11b0:	e4 2e       	mov	r14, r20
    11b2:	f1 2c       	mov	r15, r1
    11b4:	01 2d       	mov	r16, r1
    11b6:	11 2d       	mov	r17, r1
    11b8:	d2 01       	movw	r26, r4
    11ba:	c1 01       	movw	r24, r2
    11bc:	0e 2c       	mov	r0, r14
    11be:	04 c0       	rjmp	.+8      	; 0x11c8 <__umoddi3+0x34e>
    11c0:	b6 95       	lsr	r27
    11c2:	a7 95       	ror	r26
    11c4:	97 95       	ror	r25
    11c6:	87 95       	ror	r24
    11c8:	0a 94       	dec	r0
    11ca:	d2 f7       	brpl	.-12     	; 0x11c0 <__umoddi3+0x346>
    11cc:	80 5a       	subi	r24, 0xA0	; 160
    11ce:	9f 4f       	sbci	r25, 0xFF	; 255
    11d0:	dc 01       	movw	r26, r24
    11d2:	2c 91       	ld	r18, X
    11d4:	30 e2       	ldi	r19, 0x20	; 32
    11d6:	a3 2e       	mov	r10, r19
    11d8:	b1 2c       	mov	r11, r1
    11da:	c1 2c       	mov	r12, r1
    11dc:	d1 2c       	mov	r13, r1
    11de:	d6 01       	movw	r26, r12
    11e0:	c5 01       	movw	r24, r10
    11e2:	8e 19       	sub	r24, r14
    11e4:	9f 09       	sbc	r25, r15
    11e6:	a0 0b       	sbc	r26, r16
    11e8:	b1 0b       	sbc	r27, r17
    11ea:	7c 01       	movw	r14, r24
    11ec:	8d 01       	movw	r16, r26
    11ee:	e2 1a       	sub	r14, r18
    11f0:	f1 08       	sbc	r15, r1
    11f2:	01 09       	sbc	r16, r1
    11f4:	11 09       	sbc	r17, r1
    11f6:	e9 ae       	std	Y+57, r14	; 0x39
    11f8:	fa ae       	std	Y+58, r15	; 0x3a
    11fa:	0b af       	std	Y+59, r16	; 0x3b
    11fc:	1c af       	std	Y+60, r17	; 0x3c
    11fe:	e1 14       	cp	r14, r1
    1200:	f1 04       	cpc	r15, r1
    1202:	01 05       	cpc	r16, r1
    1204:	11 05       	cpc	r17, r1
    1206:	39 f4       	brne	.+14     	; 0x1216 <__umoddi3+0x39c>
    1208:	64 01       	movw	r12, r8
    120a:	53 01       	movw	r10, r6
    120c:	a2 18       	sub	r10, r2
    120e:	b3 08       	sbc	r11, r3
    1210:	c4 08       	sbc	r12, r4
    1212:	d5 08       	sbc	r13, r5
    1214:	e2 c0       	rjmp	.+452    	; 0x13da <__umoddi3+0x560>
    1216:	f9 ac       	ldd	r15, Y+57	; 0x39
    1218:	68 96       	adiw	r28, 0x18	; 24
    121a:	ff ae       	std	Y+63, r15	; 0x3f
    121c:	68 97       	sbiw	r28, 0x18	; 24
    121e:	0f 2c       	mov	r0, r15
    1220:	04 c0       	rjmp	.+8      	; 0x122a <__umoddi3+0x3b0>
    1222:	22 0c       	add	r2, r2
    1224:	33 1c       	adc	r3, r3
    1226:	44 1c       	adc	r4, r4
    1228:	55 1c       	adc	r5, r5
    122a:	0a 94       	dec	r0
    122c:	d2 f7       	brpl	.-12     	; 0x1222 <__umoddi3+0x3a8>
    122e:	8a 2d       	mov	r24, r10
    1230:	8f 19       	sub	r24, r15
    1232:	64 01       	movw	r12, r8
    1234:	53 01       	movw	r10, r6
    1236:	08 2e       	mov	r0, r24
    1238:	04 c0       	rjmp	.+8      	; 0x1242 <__umoddi3+0x3c8>
    123a:	d6 94       	lsr	r13
    123c:	c7 94       	ror	r12
    123e:	b7 94       	ror	r11
    1240:	a7 94       	ror	r10
    1242:	0a 94       	dec	r0
    1244:	d2 f7       	brpl	.-12     	; 0x123a <__umoddi3+0x3c0>
    1246:	a4 01       	movw	r20, r8
    1248:	93 01       	movw	r18, r6
    124a:	04 c0       	rjmp	.+8      	; 0x1254 <__umoddi3+0x3da>
    124c:	22 0f       	add	r18, r18
    124e:	33 1f       	adc	r19, r19
    1250:	44 1f       	adc	r20, r20
    1252:	55 1f       	adc	r21, r21
    1254:	fa 94       	dec	r15
    1256:	d2 f7       	brpl	.-12     	; 0x124c <__umoddi3+0x3d2>
    1258:	6c 96       	adiw	r28, 0x1c	; 28
    125a:	6c ac       	ldd	r6, Y+60	; 0x3c
    125c:	7d ac       	ldd	r7, Y+61	; 0x3d
    125e:	8e ac       	ldd	r8, Y+62	; 0x3e
    1260:	9f ac       	ldd	r9, Y+63	; 0x3f
    1262:	6c 97       	sbiw	r28, 0x1c	; 28
    1264:	04 c0       	rjmp	.+8      	; 0x126e <__umoddi3+0x3f4>
    1266:	96 94       	lsr	r9
    1268:	87 94       	ror	r8
    126a:	77 94       	ror	r7
    126c:	67 94       	ror	r6
    126e:	8a 95       	dec	r24
    1270:	d2 f7       	brpl	.-12     	; 0x1266 <__umoddi3+0x3ec>
    1272:	84 01       	movw	r16, r8
    1274:	73 01       	movw	r14, r6
    1276:	e2 2a       	or	r14, r18
    1278:	f3 2a       	or	r15, r19
    127a:	04 2b       	or	r16, r20
    127c:	15 2b       	or	r17, r21
    127e:	ed a6       	std	Y+45, r14	; 0x2d
    1280:	fe a6       	std	Y+46, r15	; 0x2e
    1282:	0f a7       	std	Y+47, r16	; 0x2f
    1284:	18 ab       	std	Y+48, r17	; 0x30
    1286:	32 01       	movw	r6, r4
    1288:	88 24       	eor	r8, r8
    128a:	99 24       	eor	r9, r9
    128c:	b2 01       	movw	r22, r4
    128e:	a1 01       	movw	r20, r2
    1290:	60 70       	andi	r22, 0x00	; 0
    1292:	70 70       	andi	r23, 0x00	; 0
    1294:	25 96       	adiw	r28, 0x05	; 5
    1296:	4c af       	std	Y+60, r20	; 0x3c
    1298:	5d af       	std	Y+61, r21	; 0x3d
    129a:	6e af       	std	Y+62, r22	; 0x3e
    129c:	7f af       	std	Y+63, r23	; 0x3f
    129e:	25 97       	sbiw	r28, 0x05	; 5
    12a0:	c6 01       	movw	r24, r12
    12a2:	b5 01       	movw	r22, r10
    12a4:	a4 01       	movw	r20, r8
    12a6:	93 01       	movw	r18, r6
    12a8:	0e 94 11 15 	call	0x2a22	; 0x2a22 <__udivmodsi4>
    12ac:	7b 01       	movw	r14, r22
    12ae:	8c 01       	movw	r16, r24
    12b0:	c6 01       	movw	r24, r12
    12b2:	b5 01       	movw	r22, r10
    12b4:	a4 01       	movw	r20, r8
    12b6:	93 01       	movw	r18, r6
    12b8:	0e 94 11 15 	call	0x2a22	; 0x2a22 <__udivmodsi4>
    12bc:	ca 01       	movw	r24, r20
    12be:	b9 01       	movw	r22, r18
    12c0:	25 96       	adiw	r28, 0x05	; 5
    12c2:	2c ad       	ldd	r18, Y+60	; 0x3c
    12c4:	3d ad       	ldd	r19, Y+61	; 0x3d
    12c6:	4e ad       	ldd	r20, Y+62	; 0x3e
    12c8:	5f ad       	ldd	r21, Y+63	; 0x3f
    12ca:	25 97       	sbiw	r28, 0x05	; 5
    12cc:	0e 94 f2 14 	call	0x29e4	; 0x29e4 <__mulsi3>
    12d0:	9b 01       	movw	r18, r22
    12d2:	ac 01       	movw	r20, r24
    12d4:	87 01       	movw	r16, r14
    12d6:	ff 24       	eor	r15, r15
    12d8:	ee 24       	eor	r14, r14
    12da:	ad a4       	ldd	r10, Y+45	; 0x2d
    12dc:	be a4       	ldd	r11, Y+46	; 0x2e
    12de:	cf a4       	ldd	r12, Y+47	; 0x2f
    12e0:	d8 a8       	ldd	r13, Y+48	; 0x30
    12e2:	c6 01       	movw	r24, r12
    12e4:	aa 27       	eor	r26, r26
    12e6:	bb 27       	eor	r27, r27
    12e8:	5c 01       	movw	r10, r24
    12ea:	6d 01       	movw	r12, r26
    12ec:	ae 28       	or	r10, r14
    12ee:	bf 28       	or	r11, r15
    12f0:	c0 2a       	or	r12, r16
    12f2:	d1 2a       	or	r13, r17
    12f4:	a2 16       	cp	r10, r18
    12f6:	b3 06       	cpc	r11, r19
    12f8:	c4 06       	cpc	r12, r20
    12fa:	d5 06       	cpc	r13, r21
    12fc:	90 f4       	brcc	.+36     	; 0x1322 <__umoddi3+0x4a8>
    12fe:	a2 0c       	add	r10, r2
    1300:	b3 1c       	adc	r11, r3
    1302:	c4 1c       	adc	r12, r4
    1304:	d5 1c       	adc	r13, r5
    1306:	a2 14       	cp	r10, r2
    1308:	b3 04       	cpc	r11, r3
    130a:	c4 04       	cpc	r12, r4
    130c:	d5 04       	cpc	r13, r5
    130e:	48 f0       	brcs	.+18     	; 0x1322 <__umoddi3+0x4a8>
    1310:	a2 16       	cp	r10, r18
    1312:	b3 06       	cpc	r11, r19
    1314:	c4 06       	cpc	r12, r20
    1316:	d5 06       	cpc	r13, r21
    1318:	20 f4       	brcc	.+8      	; 0x1322 <__umoddi3+0x4a8>
    131a:	a2 0c       	add	r10, r2
    131c:	b3 1c       	adc	r11, r3
    131e:	c4 1c       	adc	r12, r4
    1320:	d5 1c       	adc	r13, r5
    1322:	a2 1a       	sub	r10, r18
    1324:	b3 0a       	sbc	r11, r19
    1326:	c4 0a       	sbc	r12, r20
    1328:	d5 0a       	sbc	r13, r21
    132a:	c6 01       	movw	r24, r12
    132c:	b5 01       	movw	r22, r10
    132e:	a4 01       	movw	r20, r8
    1330:	93 01       	movw	r18, r6
    1332:	0e 94 11 15 	call	0x2a22	; 0x2a22 <__udivmodsi4>
    1336:	7b 01       	movw	r14, r22
    1338:	8c 01       	movw	r16, r24
    133a:	c6 01       	movw	r24, r12
    133c:	b5 01       	movw	r22, r10
    133e:	a4 01       	movw	r20, r8
    1340:	93 01       	movw	r18, r6
    1342:	0e 94 11 15 	call	0x2a22	; 0x2a22 <__udivmodsi4>
    1346:	ca 01       	movw	r24, r20
    1348:	b9 01       	movw	r22, r18
    134a:	25 96       	adiw	r28, 0x05	; 5
    134c:	2c ad       	ldd	r18, Y+60	; 0x3c
    134e:	3d ad       	ldd	r19, Y+61	; 0x3d
    1350:	4e ad       	ldd	r20, Y+62	; 0x3e
    1352:	5f ad       	ldd	r21, Y+63	; 0x3f
    1354:	25 97       	sbiw	r28, 0x05	; 5
    1356:	0e 94 f2 14 	call	0x29e4	; 0x29e4 <__mulsi3>
    135a:	9b 01       	movw	r18, r22
    135c:	ac 01       	movw	r20, r24
    135e:	87 01       	movw	r16, r14
    1360:	ff 24       	eor	r15, r15
    1362:	ee 24       	eor	r14, r14
    1364:	8d a5       	ldd	r24, Y+45	; 0x2d
    1366:	9e a5       	ldd	r25, Y+46	; 0x2e
    1368:	af a5       	ldd	r26, Y+47	; 0x2f
    136a:	b8 a9       	ldd	r27, Y+48	; 0x30
    136c:	a0 70       	andi	r26, 0x00	; 0
    136e:	b0 70       	andi	r27, 0x00	; 0
    1370:	57 01       	movw	r10, r14
    1372:	68 01       	movw	r12, r16
    1374:	a8 2a       	or	r10, r24
    1376:	b9 2a       	or	r11, r25
    1378:	ca 2a       	or	r12, r26
    137a:	db 2a       	or	r13, r27
    137c:	a2 16       	cp	r10, r18
    137e:	b3 06       	cpc	r11, r19
    1380:	c4 06       	cpc	r12, r20
    1382:	d5 06       	cpc	r13, r21
    1384:	90 f4       	brcc	.+36     	; 0x13aa <__umoddi3+0x530>
    1386:	a2 0c       	add	r10, r2
    1388:	b3 1c       	adc	r11, r3
    138a:	c4 1c       	adc	r12, r4
    138c:	d5 1c       	adc	r13, r5
    138e:	a2 14       	cp	r10, r2
    1390:	b3 04       	cpc	r11, r3
    1392:	c4 04       	cpc	r12, r4
    1394:	d5 04       	cpc	r13, r5
    1396:	48 f0       	brcs	.+18     	; 0x13aa <__umoddi3+0x530>
    1398:	a2 16       	cp	r10, r18
    139a:	b3 06       	cpc	r11, r19
    139c:	c4 06       	cpc	r12, r20
    139e:	d5 06       	cpc	r13, r21
    13a0:	20 f4       	brcc	.+8      	; 0x13aa <__umoddi3+0x530>
    13a2:	a2 0c       	add	r10, r2
    13a4:	b3 1c       	adc	r11, r3
    13a6:	c4 1c       	adc	r12, r4
    13a8:	d5 1c       	adc	r13, r5
    13aa:	6c 96       	adiw	r28, 0x1c	; 28
    13ac:	ec ac       	ldd	r14, Y+60	; 0x3c
    13ae:	fd ac       	ldd	r15, Y+61	; 0x3d
    13b0:	0e ad       	ldd	r16, Y+62	; 0x3e
    13b2:	1f ad       	ldd	r17, Y+63	; 0x3f
    13b4:	6c 97       	sbiw	r28, 0x1c	; 28
    13b6:	68 96       	adiw	r28, 0x18	; 24
    13b8:	0f ac       	ldd	r0, Y+63	; 0x3f
    13ba:	68 97       	sbiw	r28, 0x18	; 24
    13bc:	04 c0       	rjmp	.+8      	; 0x13c6 <__umoddi3+0x54c>
    13be:	ee 0c       	add	r14, r14
    13c0:	ff 1c       	adc	r15, r15
    13c2:	00 1f       	adc	r16, r16
    13c4:	11 1f       	adc	r17, r17
    13c6:	0a 94       	dec	r0
    13c8:	d2 f7       	brpl	.-12     	; 0x13be <__umoddi3+0x544>
    13ca:	e9 aa       	std	Y+49, r14	; 0x31
    13cc:	fa aa       	std	Y+50, r15	; 0x32
    13ce:	0b ab       	std	Y+51, r16	; 0x33
    13d0:	1c ab       	std	Y+52, r17	; 0x34
    13d2:	a2 1a       	sub	r10, r18
    13d4:	b3 0a       	sbc	r11, r19
    13d6:	c4 0a       	sbc	r12, r20
    13d8:	d5 0a       	sbc	r13, r21
    13da:	32 01       	movw	r6, r4
    13dc:	88 24       	eor	r8, r8
    13de:	99 24       	eor	r9, r9
    13e0:	b2 01       	movw	r22, r4
    13e2:	a1 01       	movw	r20, r2
    13e4:	60 70       	andi	r22, 0x00	; 0
    13e6:	70 70       	andi	r23, 0x00	; 0
    13e8:	29 96       	adiw	r28, 0x09	; 9
    13ea:	4c af       	std	Y+60, r20	; 0x3c
    13ec:	5d af       	std	Y+61, r21	; 0x3d
    13ee:	6e af       	std	Y+62, r22	; 0x3e
    13f0:	7f af       	std	Y+63, r23	; 0x3f
    13f2:	29 97       	sbiw	r28, 0x09	; 9
    13f4:	c6 01       	movw	r24, r12
    13f6:	b5 01       	movw	r22, r10
    13f8:	a4 01       	movw	r20, r8
    13fa:	93 01       	movw	r18, r6
    13fc:	0e 94 11 15 	call	0x2a22	; 0x2a22 <__udivmodsi4>
    1400:	7b 01       	movw	r14, r22
    1402:	8c 01       	movw	r16, r24
    1404:	c6 01       	movw	r24, r12
    1406:	b5 01       	movw	r22, r10
    1408:	a4 01       	movw	r20, r8
    140a:	93 01       	movw	r18, r6
    140c:	0e 94 11 15 	call	0x2a22	; 0x2a22 <__udivmodsi4>
    1410:	ca 01       	movw	r24, r20
    1412:	b9 01       	movw	r22, r18
    1414:	29 96       	adiw	r28, 0x09	; 9
    1416:	2c ad       	ldd	r18, Y+60	; 0x3c
    1418:	3d ad       	ldd	r19, Y+61	; 0x3d
    141a:	4e ad       	ldd	r20, Y+62	; 0x3e
    141c:	5f ad       	ldd	r21, Y+63	; 0x3f
    141e:	29 97       	sbiw	r28, 0x09	; 9
    1420:	0e 94 f2 14 	call	0x29e4	; 0x29e4 <__mulsi3>
    1424:	9b 01       	movw	r18, r22
    1426:	ac 01       	movw	r20, r24
    1428:	87 01       	movw	r16, r14
    142a:	ff 24       	eor	r15, r15
    142c:	ee 24       	eor	r14, r14
    142e:	a9 a8       	ldd	r10, Y+49	; 0x31
    1430:	ba a8       	ldd	r11, Y+50	; 0x32
    1432:	cb a8       	ldd	r12, Y+51	; 0x33
    1434:	dc a8       	ldd	r13, Y+52	; 0x34
    1436:	c6 01       	movw	r24, r12
    1438:	aa 27       	eor	r26, r26
    143a:	bb 27       	eor	r27, r27
    143c:	57 01       	movw	r10, r14
    143e:	68 01       	movw	r12, r16
    1440:	a8 2a       	or	r10, r24
    1442:	b9 2a       	or	r11, r25
    1444:	ca 2a       	or	r12, r26
    1446:	db 2a       	or	r13, r27
    1448:	a2 16       	cp	r10, r18
    144a:	b3 06       	cpc	r11, r19
    144c:	c4 06       	cpc	r12, r20
    144e:	d5 06       	cpc	r13, r21
    1450:	90 f4       	brcc	.+36     	; 0x1476 <__umoddi3+0x5fc>
    1452:	a2 0c       	add	r10, r2
    1454:	b3 1c       	adc	r11, r3
    1456:	c4 1c       	adc	r12, r4
    1458:	d5 1c       	adc	r13, r5
    145a:	a2 14       	cp	r10, r2
    145c:	b3 04       	cpc	r11, r3
    145e:	c4 04       	cpc	r12, r4
    1460:	d5 04       	cpc	r13, r5
    1462:	48 f0       	brcs	.+18     	; 0x1476 <__umoddi3+0x5fc>
    1464:	a2 16       	cp	r10, r18
    1466:	b3 06       	cpc	r11, r19
    1468:	c4 06       	cpc	r12, r20
    146a:	d5 06       	cpc	r13, r21
    146c:	20 f4       	brcc	.+8      	; 0x1476 <__umoddi3+0x5fc>
    146e:	a2 0c       	add	r10, r2
    1470:	b3 1c       	adc	r11, r3
    1472:	c4 1c       	adc	r12, r4
    1474:	d5 1c       	adc	r13, r5
    1476:	a2 1a       	sub	r10, r18
    1478:	b3 0a       	sbc	r11, r19
    147a:	c4 0a       	sbc	r12, r20
    147c:	d5 0a       	sbc	r13, r21
    147e:	c6 01       	movw	r24, r12
    1480:	b5 01       	movw	r22, r10
    1482:	a4 01       	movw	r20, r8
    1484:	93 01       	movw	r18, r6
    1486:	0e 94 11 15 	call	0x2a22	; 0x2a22 <__udivmodsi4>
    148a:	7b 01       	movw	r14, r22
    148c:	8c 01       	movw	r16, r24
    148e:	c6 01       	movw	r24, r12
    1490:	b5 01       	movw	r22, r10
    1492:	a4 01       	movw	r20, r8
    1494:	93 01       	movw	r18, r6
    1496:	0e 94 11 15 	call	0x2a22	; 0x2a22 <__udivmodsi4>
    149a:	ca 01       	movw	r24, r20
    149c:	b9 01       	movw	r22, r18
    149e:	29 96       	adiw	r28, 0x09	; 9
    14a0:	2c ad       	ldd	r18, Y+60	; 0x3c
    14a2:	3d ad       	ldd	r19, Y+61	; 0x3d
    14a4:	4e ad       	ldd	r20, Y+62	; 0x3e
    14a6:	5f ad       	ldd	r21, Y+63	; 0x3f
    14a8:	29 97       	sbiw	r28, 0x09	; 9
    14aa:	0e 94 f2 14 	call	0x29e4	; 0x29e4 <__mulsi3>
    14ae:	9b 01       	movw	r18, r22
    14b0:	ac 01       	movw	r20, r24
    14b2:	87 01       	movw	r16, r14
    14b4:	ff 24       	eor	r15, r15
    14b6:	ee 24       	eor	r14, r14
    14b8:	89 a9       	ldd	r24, Y+49	; 0x31
    14ba:	9a a9       	ldd	r25, Y+50	; 0x32
    14bc:	ab a9       	ldd	r26, Y+51	; 0x33
    14be:	bc a9       	ldd	r27, Y+52	; 0x34
    14c0:	a0 70       	andi	r26, 0x00	; 0
    14c2:	b0 70       	andi	r27, 0x00	; 0
    14c4:	e8 2a       	or	r14, r24
    14c6:	f9 2a       	or	r15, r25
    14c8:	0a 2b       	or	r16, r26
    14ca:	1b 2b       	or	r17, r27
    14cc:	e2 16       	cp	r14, r18
    14ce:	f3 06       	cpc	r15, r19
    14d0:	04 07       	cpc	r16, r20
    14d2:	15 07       	cpc	r17, r21
    14d4:	90 f4       	brcc	.+36     	; 0x14fa <__umoddi3+0x680>
    14d6:	e2 0c       	add	r14, r2
    14d8:	f3 1c       	adc	r15, r3
    14da:	04 1d       	adc	r16, r4
    14dc:	15 1d       	adc	r17, r5
    14de:	e2 14       	cp	r14, r2
    14e0:	f3 04       	cpc	r15, r3
    14e2:	04 05       	cpc	r16, r4
    14e4:	15 05       	cpc	r17, r5
    14e6:	48 f0       	brcs	.+18     	; 0x14fa <__umoddi3+0x680>
    14e8:	e2 16       	cp	r14, r18
    14ea:	f3 06       	cpc	r15, r19
    14ec:	04 07       	cpc	r16, r20
    14ee:	15 07       	cpc	r17, r21
    14f0:	20 f4       	brcc	.+8      	; 0x14fa <__umoddi3+0x680>
    14f2:	e2 0c       	add	r14, r2
    14f4:	f3 1c       	adc	r15, r3
    14f6:	04 1d       	adc	r16, r4
    14f8:	15 1d       	adc	r17, r5
    14fa:	e2 1a       	sub	r14, r18
    14fc:	f3 0a       	sbc	r15, r19
    14fe:	04 0b       	sbc	r16, r20
    1500:	15 0b       	sbc	r17, r21
    1502:	d8 01       	movw	r26, r16
    1504:	c7 01       	movw	r24, r14
    1506:	09 ac       	ldd	r0, Y+57	; 0x39
    1508:	04 c0       	rjmp	.+8      	; 0x1512 <__umoddi3+0x698>
    150a:	b6 95       	lsr	r27
    150c:	a7 95       	ror	r26
    150e:	97 95       	ror	r25
    1510:	87 95       	ror	r24
    1512:	0a 94       	dec	r0
    1514:	d2 f7       	brpl	.-12     	; 0x150a <__umoddi3+0x690>
    1516:	89 8b       	std	Y+17, r24	; 0x11
    1518:	9a 8b       	std	Y+18, r25	; 0x12
    151a:	ab 8b       	std	Y+19, r26	; 0x13
    151c:	bc 8b       	std	Y+20, r27	; 0x14
    151e:	1d 8a       	std	Y+21, r1	; 0x15
    1520:	1e 8a       	std	Y+22, r1	; 0x16
    1522:	1f 8a       	std	Y+23, r1	; 0x17
    1524:	18 8e       	std	Y+24, r1	; 0x18
    1526:	28 2f       	mov	r18, r24
    1528:	3a 89       	ldd	r19, Y+18	; 0x12
    152a:	4b 89       	ldd	r20, Y+19	; 0x13
    152c:	5c 89       	ldd	r21, Y+20	; 0x14
    152e:	6d 89       	ldd	r22, Y+21	; 0x15
    1530:	0c c3       	rjmp	.+1560   	; 0x1b4a <__umoddi3+0xcd0>
    1532:	6a 14       	cp	r6, r10
    1534:	7b 04       	cpc	r7, r11
    1536:	8c 04       	cpc	r8, r12
    1538:	9d 04       	cpc	r9, r13
    153a:	08 f4       	brcc	.+2      	; 0x153e <__umoddi3+0x6c4>
    153c:	09 c3       	rjmp	.+1554   	; 0x1b50 <__umoddi3+0xcd6>
    153e:	00 e0       	ldi	r16, 0x00	; 0
    1540:	a0 16       	cp	r10, r16
    1542:	00 e0       	ldi	r16, 0x00	; 0
    1544:	b0 06       	cpc	r11, r16
    1546:	01 e0       	ldi	r16, 0x01	; 1
    1548:	c0 06       	cpc	r12, r16
    154a:	00 e0       	ldi	r16, 0x00	; 0
    154c:	d0 06       	cpc	r13, r16
    154e:	88 f4       	brcc	.+34     	; 0x1572 <__umoddi3+0x6f8>
    1550:	1f ef       	ldi	r17, 0xFF	; 255
    1552:	a1 16       	cp	r10, r17
    1554:	b1 04       	cpc	r11, r1
    1556:	c1 04       	cpc	r12, r1
    1558:	d1 04       	cpc	r13, r1
    155a:	39 f0       	breq	.+14     	; 0x156a <__umoddi3+0x6f0>
    155c:	30 f0       	brcs	.+12     	; 0x156a <__umoddi3+0x6f0>
    155e:	28 e0       	ldi	r18, 0x08	; 8
    1560:	e2 2e       	mov	r14, r18
    1562:	f1 2c       	mov	r15, r1
    1564:	01 2d       	mov	r16, r1
    1566:	11 2d       	mov	r17, r1
    1568:	18 c0       	rjmp	.+48     	; 0x159a <__umoddi3+0x720>
    156a:	ee 24       	eor	r14, r14
    156c:	ff 24       	eor	r15, r15
    156e:	87 01       	movw	r16, r14
    1570:	14 c0       	rjmp	.+40     	; 0x159a <__umoddi3+0x720>
    1572:	40 e0       	ldi	r20, 0x00	; 0
    1574:	a4 16       	cp	r10, r20
    1576:	40 e0       	ldi	r20, 0x00	; 0
    1578:	b4 06       	cpc	r11, r20
    157a:	40 e0       	ldi	r20, 0x00	; 0
    157c:	c4 06       	cpc	r12, r20
    157e:	41 e0       	ldi	r20, 0x01	; 1
    1580:	d4 06       	cpc	r13, r20
    1582:	30 f0       	brcs	.+12     	; 0x1590 <__umoddi3+0x716>
    1584:	98 e1       	ldi	r25, 0x18	; 24
    1586:	e9 2e       	mov	r14, r25
    1588:	f1 2c       	mov	r15, r1
    158a:	01 2d       	mov	r16, r1
    158c:	11 2d       	mov	r17, r1
    158e:	05 c0       	rjmp	.+10     	; 0x159a <__umoddi3+0x720>
    1590:	80 e1       	ldi	r24, 0x10	; 16
    1592:	e8 2e       	mov	r14, r24
    1594:	f1 2c       	mov	r15, r1
    1596:	01 2d       	mov	r16, r1
    1598:	11 2d       	mov	r17, r1
    159a:	d6 01       	movw	r26, r12
    159c:	c5 01       	movw	r24, r10
    159e:	0e 2c       	mov	r0, r14
    15a0:	04 c0       	rjmp	.+8      	; 0x15aa <__umoddi3+0x730>
    15a2:	b6 95       	lsr	r27
    15a4:	a7 95       	ror	r26
    15a6:	97 95       	ror	r25
    15a8:	87 95       	ror	r24
    15aa:	0a 94       	dec	r0
    15ac:	d2 f7       	brpl	.-12     	; 0x15a2 <__umoddi3+0x728>
    15ae:	80 5a       	subi	r24, 0xA0	; 160
    15b0:	9f 4f       	sbci	r25, 0xFF	; 255
    15b2:	dc 01       	movw	r26, r24
    15b4:	2c 91       	ld	r18, X
    15b6:	80 e2       	ldi	r24, 0x20	; 32
    15b8:	90 e0       	ldi	r25, 0x00	; 0
    15ba:	a0 e0       	ldi	r26, 0x00	; 0
    15bc:	b0 e0       	ldi	r27, 0x00	; 0
    15be:	8e 19       	sub	r24, r14
    15c0:	9f 09       	sbc	r25, r15
    15c2:	a0 0b       	sbc	r26, r16
    15c4:	b1 0b       	sbc	r27, r17
    15c6:	82 1b       	sub	r24, r18
    15c8:	91 09       	sbc	r25, r1
    15ca:	a1 09       	sbc	r26, r1
    15cc:	b1 09       	sbc	r27, r1
    15ce:	00 97       	sbiw	r24, 0x00	; 0
    15d0:	a1 05       	cpc	r26, r1
    15d2:	b1 05       	cpc	r27, r1
    15d4:	09 f0       	breq	.+2      	; 0x15d8 <__umoddi3+0x75e>
    15d6:	4f c0       	rjmp	.+158    	; 0x1676 <__umoddi3+0x7fc>
    15d8:	a6 14       	cp	r10, r6
    15da:	b7 04       	cpc	r11, r7
    15dc:	c8 04       	cpc	r12, r8
    15de:	d9 04       	cpc	r13, r9
    15e0:	58 f0       	brcs	.+22     	; 0x15f8 <__umoddi3+0x77e>
    15e2:	6c 96       	adiw	r28, 0x1c	; 28
    15e4:	ec ac       	ldd	r14, Y+60	; 0x3c
    15e6:	fd ac       	ldd	r15, Y+61	; 0x3d
    15e8:	0e ad       	ldd	r16, Y+62	; 0x3e
    15ea:	1f ad       	ldd	r17, Y+63	; 0x3f
    15ec:	6c 97       	sbiw	r28, 0x1c	; 28
    15ee:	e2 14       	cp	r14, r2
    15f0:	f3 04       	cpc	r15, r3
    15f2:	04 05       	cpc	r16, r4
    15f4:	15 05       	cpc	r17, r5
    15f6:	68 f1       	brcs	.+90     	; 0x1652 <__umoddi3+0x7d8>
    15f8:	6c 96       	adiw	r28, 0x1c	; 28
    15fa:	ec ac       	ldd	r14, Y+60	; 0x3c
    15fc:	fd ac       	ldd	r15, Y+61	; 0x3d
    15fe:	0e ad       	ldd	r16, Y+62	; 0x3e
    1600:	1f ad       	ldd	r17, Y+63	; 0x3f
    1602:	6c 97       	sbiw	r28, 0x1c	; 28
    1604:	e2 18       	sub	r14, r2
    1606:	f3 08       	sbc	r15, r3
    1608:	04 09       	sbc	r16, r4
    160a:	15 09       	sbc	r17, r5
    160c:	a4 01       	movw	r20, r8
    160e:	93 01       	movw	r18, r6
    1610:	2a 19       	sub	r18, r10
    1612:	3b 09       	sbc	r19, r11
    1614:	4c 09       	sbc	r20, r12
    1616:	5d 09       	sbc	r21, r13
    1618:	aa 24       	eor	r10, r10
    161a:	bb 24       	eor	r11, r11
    161c:	65 01       	movw	r12, r10
    161e:	6c 96       	adiw	r28, 0x1c	; 28
    1620:	6c ad       	ldd	r22, Y+60	; 0x3c
    1622:	7d ad       	ldd	r23, Y+61	; 0x3d
    1624:	8e ad       	ldd	r24, Y+62	; 0x3e
    1626:	9f ad       	ldd	r25, Y+63	; 0x3f
    1628:	6c 97       	sbiw	r28, 0x1c	; 28
    162a:	6e 15       	cp	r22, r14
    162c:	7f 05       	cpc	r23, r15
    162e:	80 07       	cpc	r24, r16
    1630:	91 07       	cpc	r25, r17
    1632:	28 f4       	brcc	.+10     	; 0x163e <__umoddi3+0x7c4>
    1634:	b1 e0       	ldi	r27, 0x01	; 1
    1636:	ab 2e       	mov	r10, r27
    1638:	b1 2c       	mov	r11, r1
    163a:	c1 2c       	mov	r12, r1
    163c:	d1 2c       	mov	r13, r1
    163e:	da 01       	movw	r26, r20
    1640:	c9 01       	movw	r24, r18
    1642:	8a 19       	sub	r24, r10
    1644:	9b 09       	sbc	r25, r11
    1646:	ac 09       	sbc	r26, r12
    1648:	bd 09       	sbc	r27, r13
    164a:	8d ab       	std	Y+53, r24	; 0x35
    164c:	9e ab       	std	Y+54, r25	; 0x36
    164e:	af ab       	std	Y+55, r26	; 0x37
    1650:	b8 af       	std	Y+56, r27	; 0x38
    1652:	e9 8a       	std	Y+17, r14	; 0x11
    1654:	fa 8a       	std	Y+18, r15	; 0x12
    1656:	0b 8b       	std	Y+19, r16	; 0x13
    1658:	1c 8b       	std	Y+20, r17	; 0x14
    165a:	6d a8       	ldd	r6, Y+53	; 0x35
    165c:	7e a8       	ldd	r7, Y+54	; 0x36
    165e:	8f a8       	ldd	r8, Y+55	; 0x37
    1660:	98 ac       	ldd	r9, Y+56	; 0x38
    1662:	6d 8a       	std	Y+21, r6	; 0x15
    1664:	7e 8a       	std	Y+22, r7	; 0x16
    1666:	8f 8a       	std	Y+23, r8	; 0x17
    1668:	98 8e       	std	Y+24, r9	; 0x18
    166a:	2e 2d       	mov	r18, r14
    166c:	3a 89       	ldd	r19, Y+18	; 0x12
    166e:	4b 89       	ldd	r20, Y+19	; 0x13
    1670:	5c 89       	ldd	r21, Y+20	; 0x14
    1672:	6d a9       	ldd	r22, Y+53	; 0x35
    1674:	6a c2       	rjmp	.+1236   	; 0x1b4a <__umoddi3+0xcd0>
    1676:	67 96       	adiw	r28, 0x17	; 23
    1678:	8f af       	std	Y+63, r24	; 0x3f
    167a:	67 97       	sbiw	r28, 0x17	; 23
    167c:	a6 01       	movw	r20, r12
    167e:	95 01       	movw	r18, r10
    1680:	08 2e       	mov	r0, r24
    1682:	04 c0       	rjmp	.+8      	; 0x168c <__umoddi3+0x812>
    1684:	22 0f       	add	r18, r18
    1686:	33 1f       	adc	r19, r19
    1688:	44 1f       	adc	r20, r20
    168a:	55 1f       	adc	r21, r21
    168c:	0a 94       	dec	r0
    168e:	d2 f7       	brpl	.-12     	; 0x1684 <__umoddi3+0x80a>
    1690:	a0 e2       	ldi	r26, 0x20	; 32
    1692:	aa 2e       	mov	r10, r26
    1694:	a8 1a       	sub	r10, r24
    1696:	66 96       	adiw	r28, 0x16	; 22
    1698:	af ae       	std	Y+63, r10	; 0x3f
    169a:	66 97       	sbiw	r28, 0x16	; 22
    169c:	d2 01       	movw	r26, r4
    169e:	c1 01       	movw	r24, r2
    16a0:	04 c0       	rjmp	.+8      	; 0x16aa <__umoddi3+0x830>
    16a2:	b6 95       	lsr	r27
    16a4:	a7 95       	ror	r26
    16a6:	97 95       	ror	r25
    16a8:	87 95       	ror	r24
    16aa:	aa 94       	dec	r10
    16ac:	d2 f7       	brpl	.-12     	; 0x16a2 <__umoddi3+0x828>
    16ae:	6c 01       	movw	r12, r24
    16b0:	7d 01       	movw	r14, r26
    16b2:	c2 2a       	or	r12, r18
    16b4:	d3 2a       	or	r13, r19
    16b6:	e4 2a       	or	r14, r20
    16b8:	f5 2a       	or	r15, r21
    16ba:	c9 a6       	std	Y+41, r12	; 0x29
    16bc:	da a6       	std	Y+42, r13	; 0x2a
    16be:	eb a6       	std	Y+43, r14	; 0x2b
    16c0:	fc a6       	std	Y+44, r15	; 0x2c
    16c2:	82 01       	movw	r16, r4
    16c4:	71 01       	movw	r14, r2
    16c6:	67 96       	adiw	r28, 0x17	; 23
    16c8:	0f ac       	ldd	r0, Y+63	; 0x3f
    16ca:	67 97       	sbiw	r28, 0x17	; 23
    16cc:	04 c0       	rjmp	.+8      	; 0x16d6 <__umoddi3+0x85c>
    16ce:	ee 0c       	add	r14, r14
    16d0:	ff 1c       	adc	r15, r15
    16d2:	00 1f       	adc	r16, r16
    16d4:	11 1f       	adc	r17, r17
    16d6:	0a 94       	dec	r0
    16d8:	d2 f7       	brpl	.-12     	; 0x16ce <__umoddi3+0x854>
    16da:	ed a2       	std	Y+37, r14	; 0x25
    16dc:	fe a2       	std	Y+38, r15	; 0x26
    16de:	0f a3       	std	Y+39, r16	; 0x27
    16e0:	18 a7       	std	Y+40, r17	; 0x28
    16e2:	64 01       	movw	r12, r8
    16e4:	53 01       	movw	r10, r6
    16e6:	66 96       	adiw	r28, 0x16	; 22
    16e8:	0f ac       	ldd	r0, Y+63	; 0x3f
    16ea:	66 97       	sbiw	r28, 0x16	; 22
    16ec:	04 c0       	rjmp	.+8      	; 0x16f6 <__umoddi3+0x87c>
    16ee:	d6 94       	lsr	r13
    16f0:	c7 94       	ror	r12
    16f2:	b7 94       	ror	r11
    16f4:	a7 94       	ror	r10
    16f6:	0a 94       	dec	r0
    16f8:	d2 f7       	brpl	.-12     	; 0x16ee <__umoddi3+0x874>
    16fa:	a4 01       	movw	r20, r8
    16fc:	93 01       	movw	r18, r6
    16fe:	67 96       	adiw	r28, 0x17	; 23
    1700:	0f ac       	ldd	r0, Y+63	; 0x3f
    1702:	67 97       	sbiw	r28, 0x17	; 23
    1704:	04 c0       	rjmp	.+8      	; 0x170e <__umoddi3+0x894>
    1706:	22 0f       	add	r18, r18
    1708:	33 1f       	adc	r19, r19
    170a:	44 1f       	adc	r20, r20
    170c:	55 1f       	adc	r21, r21
    170e:	0a 94       	dec	r0
    1710:	d2 f7       	brpl	.-12     	; 0x1706 <__umoddi3+0x88c>
    1712:	6c 96       	adiw	r28, 0x1c	; 28
    1714:	8c ad       	ldd	r24, Y+60	; 0x3c
    1716:	9d ad       	ldd	r25, Y+61	; 0x3d
    1718:	ae ad       	ldd	r26, Y+62	; 0x3e
    171a:	bf ad       	ldd	r27, Y+63	; 0x3f
    171c:	6c 97       	sbiw	r28, 0x1c	; 28
    171e:	66 96       	adiw	r28, 0x16	; 22
    1720:	0f ac       	ldd	r0, Y+63	; 0x3f
    1722:	66 97       	sbiw	r28, 0x16	; 22
    1724:	04 c0       	rjmp	.+8      	; 0x172e <__umoddi3+0x8b4>
    1726:	b6 95       	lsr	r27
    1728:	a7 95       	ror	r26
    172a:	97 95       	ror	r25
    172c:	87 95       	ror	r24
    172e:	0a 94       	dec	r0
    1730:	d2 f7       	brpl	.-12     	; 0x1726 <__umoddi3+0x8ac>
    1732:	3c 01       	movw	r6, r24
    1734:	4d 01       	movw	r8, r26
    1736:	62 2a       	or	r6, r18
    1738:	73 2a       	or	r7, r19
    173a:	84 2a       	or	r8, r20
    173c:	95 2a       	or	r9, r21
    173e:	69 a2       	std	Y+33, r6	; 0x21
    1740:	7a a2       	std	Y+34, r7	; 0x22
    1742:	8b a2       	std	Y+35, r8	; 0x23
    1744:	9c a2       	std	Y+36, r9	; 0x24
    1746:	6c 96       	adiw	r28, 0x1c	; 28
    1748:	ec ac       	ldd	r14, Y+60	; 0x3c
    174a:	fd ac       	ldd	r15, Y+61	; 0x3d
    174c:	0e ad       	ldd	r16, Y+62	; 0x3e
    174e:	1f ad       	ldd	r17, Y+63	; 0x3f
    1750:	6c 97       	sbiw	r28, 0x1c	; 28
    1752:	67 96       	adiw	r28, 0x17	; 23
    1754:	0f ac       	ldd	r0, Y+63	; 0x3f
    1756:	67 97       	sbiw	r28, 0x17	; 23
    1758:	04 c0       	rjmp	.+8      	; 0x1762 <__umoddi3+0x8e8>
    175a:	ee 0c       	add	r14, r14
    175c:	ff 1c       	adc	r15, r15
    175e:	00 1f       	adc	r16, r16
    1760:	11 1f       	adc	r17, r17
    1762:	0a 94       	dec	r0
    1764:	d2 f7       	brpl	.-12     	; 0x175a <__umoddi3+0x8e0>
    1766:	ed 8e       	std	Y+29, r14	; 0x1d
    1768:	fe 8e       	std	Y+30, r15	; 0x1e
    176a:	0f 8f       	std	Y+31, r16	; 0x1f
    176c:	18 a3       	std	Y+32, r17	; 0x20
    176e:	49 a5       	ldd	r20, Y+41	; 0x29
    1770:	5a a5       	ldd	r21, Y+42	; 0x2a
    1772:	6b a5       	ldd	r22, Y+43	; 0x2b
    1774:	7c a5       	ldd	r23, Y+44	; 0x2c
    1776:	3b 01       	movw	r6, r22
    1778:	88 24       	eor	r8, r8
    177a:	99 24       	eor	r9, r9
    177c:	60 70       	andi	r22, 0x00	; 0
    177e:	70 70       	andi	r23, 0x00	; 0
    1780:	2d 96       	adiw	r28, 0x0d	; 13
    1782:	4c af       	std	Y+60, r20	; 0x3c
    1784:	5d af       	std	Y+61, r21	; 0x3d
    1786:	6e af       	std	Y+62, r22	; 0x3e
    1788:	7f af       	std	Y+63, r23	; 0x3f
    178a:	2d 97       	sbiw	r28, 0x0d	; 13
    178c:	c6 01       	movw	r24, r12
    178e:	b5 01       	movw	r22, r10
    1790:	a4 01       	movw	r20, r8
    1792:	93 01       	movw	r18, r6
    1794:	0e 94 11 15 	call	0x2a22	; 0x2a22 <__udivmodsi4>
    1798:	7b 01       	movw	r14, r22
    179a:	8c 01       	movw	r16, r24
    179c:	c6 01       	movw	r24, r12
    179e:	b5 01       	movw	r22, r10
    17a0:	a4 01       	movw	r20, r8
    17a2:	93 01       	movw	r18, r6
    17a4:	0e 94 11 15 	call	0x2a22	; 0x2a22 <__udivmodsi4>
    17a8:	c9 01       	movw	r24, r18
    17aa:	da 01       	movw	r26, r20
    17ac:	1c 01       	movw	r2, r24
    17ae:	2d 01       	movw	r4, r26
    17b0:	c2 01       	movw	r24, r4
    17b2:	b1 01       	movw	r22, r2
    17b4:	2d 96       	adiw	r28, 0x0d	; 13
    17b6:	2c ad       	ldd	r18, Y+60	; 0x3c
    17b8:	3d ad       	ldd	r19, Y+61	; 0x3d
    17ba:	4e ad       	ldd	r20, Y+62	; 0x3e
    17bc:	5f ad       	ldd	r21, Y+63	; 0x3f
    17be:	2d 97       	sbiw	r28, 0x0d	; 13
    17c0:	0e 94 f2 14 	call	0x29e4	; 0x29e4 <__mulsi3>
    17c4:	9b 01       	movw	r18, r22
    17c6:	ac 01       	movw	r20, r24
    17c8:	87 01       	movw	r16, r14
    17ca:	ff 24       	eor	r15, r15
    17cc:	ee 24       	eor	r14, r14
    17ce:	a9 a0       	ldd	r10, Y+33	; 0x21
    17d0:	ba a0       	ldd	r11, Y+34	; 0x22
    17d2:	cb a0       	ldd	r12, Y+35	; 0x23
    17d4:	dc a0       	ldd	r13, Y+36	; 0x24
    17d6:	c6 01       	movw	r24, r12
    17d8:	aa 27       	eor	r26, r26
    17da:	bb 27       	eor	r27, r27
    17dc:	57 01       	movw	r10, r14
    17de:	68 01       	movw	r12, r16
    17e0:	a8 2a       	or	r10, r24
    17e2:	b9 2a       	or	r11, r25
    17e4:	ca 2a       	or	r12, r26
    17e6:	db 2a       	or	r13, r27
    17e8:	a2 16       	cp	r10, r18
    17ea:	b3 06       	cpc	r11, r19
    17ec:	c4 06       	cpc	r12, r20
    17ee:	d5 06       	cpc	r13, r21
    17f0:	00 f5       	brcc	.+64     	; 0x1832 <__umoddi3+0x9b8>
    17f2:	08 94       	sec
    17f4:	21 08       	sbc	r2, r1
    17f6:	31 08       	sbc	r3, r1
    17f8:	41 08       	sbc	r4, r1
    17fa:	51 08       	sbc	r5, r1
    17fc:	e9 a4       	ldd	r14, Y+41	; 0x29
    17fe:	fa a4       	ldd	r15, Y+42	; 0x2a
    1800:	0b a5       	ldd	r16, Y+43	; 0x2b
    1802:	1c a5       	ldd	r17, Y+44	; 0x2c
    1804:	ae 0c       	add	r10, r14
    1806:	bf 1c       	adc	r11, r15
    1808:	c0 1e       	adc	r12, r16
    180a:	d1 1e       	adc	r13, r17
    180c:	ae 14       	cp	r10, r14
    180e:	bf 04       	cpc	r11, r15
    1810:	c0 06       	cpc	r12, r16
    1812:	d1 06       	cpc	r13, r17
    1814:	70 f0       	brcs	.+28     	; 0x1832 <__umoddi3+0x9b8>
    1816:	a2 16       	cp	r10, r18
    1818:	b3 06       	cpc	r11, r19
    181a:	c4 06       	cpc	r12, r20
    181c:	d5 06       	cpc	r13, r21
    181e:	48 f4       	brcc	.+18     	; 0x1832 <__umoddi3+0x9b8>
    1820:	08 94       	sec
    1822:	21 08       	sbc	r2, r1
    1824:	31 08       	sbc	r3, r1
    1826:	41 08       	sbc	r4, r1
    1828:	51 08       	sbc	r5, r1
    182a:	ae 0c       	add	r10, r14
    182c:	bf 1c       	adc	r11, r15
    182e:	c0 1e       	adc	r12, r16
    1830:	d1 1e       	adc	r13, r17
    1832:	a2 1a       	sub	r10, r18
    1834:	b3 0a       	sbc	r11, r19
    1836:	c4 0a       	sbc	r12, r20
    1838:	d5 0a       	sbc	r13, r21
    183a:	c6 01       	movw	r24, r12
    183c:	b5 01       	movw	r22, r10
    183e:	a4 01       	movw	r20, r8
    1840:	93 01       	movw	r18, r6
    1842:	0e 94 11 15 	call	0x2a22	; 0x2a22 <__udivmodsi4>
    1846:	7b 01       	movw	r14, r22
    1848:	8c 01       	movw	r16, r24
    184a:	c6 01       	movw	r24, r12
    184c:	b5 01       	movw	r22, r10
    184e:	a4 01       	movw	r20, r8
    1850:	93 01       	movw	r18, r6
    1852:	0e 94 11 15 	call	0x2a22	; 0x2a22 <__udivmodsi4>
    1856:	c9 01       	movw	r24, r18
    1858:	da 01       	movw	r26, r20
    185a:	3c 01       	movw	r6, r24
    185c:	4d 01       	movw	r8, r26
    185e:	c4 01       	movw	r24, r8
    1860:	b3 01       	movw	r22, r6
    1862:	2d 96       	adiw	r28, 0x0d	; 13
    1864:	2c ad       	ldd	r18, Y+60	; 0x3c
    1866:	3d ad       	ldd	r19, Y+61	; 0x3d
    1868:	4e ad       	ldd	r20, Y+62	; 0x3e
    186a:	5f ad       	ldd	r21, Y+63	; 0x3f
    186c:	2d 97       	sbiw	r28, 0x0d	; 13
    186e:	0e 94 f2 14 	call	0x29e4	; 0x29e4 <__mulsi3>
    1872:	9b 01       	movw	r18, r22
    1874:	ac 01       	movw	r20, r24
    1876:	87 01       	movw	r16, r14
    1878:	ff 24       	eor	r15, r15
    187a:	ee 24       	eor	r14, r14
    187c:	89 a1       	ldd	r24, Y+33	; 0x21
    187e:	9a a1       	ldd	r25, Y+34	; 0x22
    1880:	ab a1       	ldd	r26, Y+35	; 0x23
    1882:	bc a1       	ldd	r27, Y+36	; 0x24
    1884:	a0 70       	andi	r26, 0x00	; 0
    1886:	b0 70       	andi	r27, 0x00	; 0
    1888:	57 01       	movw	r10, r14
    188a:	68 01       	movw	r12, r16
    188c:	a8 2a       	or	r10, r24
    188e:	b9 2a       	or	r11, r25
    1890:	ca 2a       	or	r12, r26
    1892:	db 2a       	or	r13, r27
    1894:	a2 16       	cp	r10, r18
    1896:	b3 06       	cpc	r11, r19
    1898:	c4 06       	cpc	r12, r20
    189a:	d5 06       	cpc	r13, r21
    189c:	00 f5       	brcc	.+64     	; 0x18de <__umoddi3+0xa64>
    189e:	08 94       	sec
    18a0:	61 08       	sbc	r6, r1
    18a2:	71 08       	sbc	r7, r1
    18a4:	81 08       	sbc	r8, r1
    18a6:	91 08       	sbc	r9, r1
    18a8:	69 a5       	ldd	r22, Y+41	; 0x29
    18aa:	7a a5       	ldd	r23, Y+42	; 0x2a
    18ac:	8b a5       	ldd	r24, Y+43	; 0x2b
    18ae:	9c a5       	ldd	r25, Y+44	; 0x2c
    18b0:	a6 0e       	add	r10, r22
    18b2:	b7 1e       	adc	r11, r23
    18b4:	c8 1e       	adc	r12, r24
    18b6:	d9 1e       	adc	r13, r25
    18b8:	a6 16       	cp	r10, r22
    18ba:	b7 06       	cpc	r11, r23
    18bc:	c8 06       	cpc	r12, r24
    18be:	d9 06       	cpc	r13, r25
    18c0:	70 f0       	brcs	.+28     	; 0x18de <__umoddi3+0xa64>
    18c2:	a2 16       	cp	r10, r18
    18c4:	b3 06       	cpc	r11, r19
    18c6:	c4 06       	cpc	r12, r20
    18c8:	d5 06       	cpc	r13, r21
    18ca:	48 f4       	brcc	.+18     	; 0x18de <__umoddi3+0xa64>
    18cc:	08 94       	sec
    18ce:	61 08       	sbc	r6, r1
    18d0:	71 08       	sbc	r7, r1
    18d2:	81 08       	sbc	r8, r1
    18d4:	91 08       	sbc	r9, r1
    18d6:	a6 0e       	add	r10, r22
    18d8:	b7 1e       	adc	r11, r23
    18da:	c8 1e       	adc	r12, r24
    18dc:	d9 1e       	adc	r13, r25
    18de:	d6 01       	movw	r26, r12
    18e0:	c5 01       	movw	r24, r10
    18e2:	82 1b       	sub	r24, r18
    18e4:	93 0b       	sbc	r25, r19
    18e6:	a4 0b       	sbc	r26, r20
    18e8:	b5 0b       	sbc	r27, r21
    18ea:	89 8f       	std	Y+25, r24	; 0x19
    18ec:	9a 8f       	std	Y+26, r25	; 0x1a
    18ee:	ab 8f       	std	Y+27, r26	; 0x1b
    18f0:	bc 8f       	std	Y+28, r27	; 0x1c
    18f2:	d1 01       	movw	r26, r2
    18f4:	99 27       	eor	r25, r25
    18f6:	88 27       	eor	r24, r24
    18f8:	84 01       	movw	r16, r8
    18fa:	73 01       	movw	r14, r6
    18fc:	e8 2a       	or	r14, r24
    18fe:	f9 2a       	or	r15, r25
    1900:	0a 2b       	or	r16, r26
    1902:	1b 2b       	or	r17, r27
    1904:	4f ef       	ldi	r20, 0xFF	; 255
    1906:	a4 2e       	mov	r10, r20
    1908:	4f ef       	ldi	r20, 0xFF	; 255
    190a:	b4 2e       	mov	r11, r20
    190c:	c1 2c       	mov	r12, r1
    190e:	d1 2c       	mov	r13, r1
    1910:	ae 20       	and	r10, r14
    1912:	bf 20       	and	r11, r15
    1914:	c0 22       	and	r12, r16
    1916:	d1 22       	and	r13, r17
    1918:	78 01       	movw	r14, r16
    191a:	00 27       	eor	r16, r16
    191c:	11 27       	eor	r17, r17
    191e:	6d a0       	ldd	r6, Y+37	; 0x25
    1920:	7e a0       	ldd	r7, Y+38	; 0x26
    1922:	8f a0       	ldd	r8, Y+39	; 0x27
    1924:	98 a4       	ldd	r9, Y+40	; 0x28
    1926:	4f ef       	ldi	r20, 0xFF	; 255
    1928:	5f ef       	ldi	r21, 0xFF	; 255
    192a:	60 e0       	ldi	r22, 0x00	; 0
    192c:	70 e0       	ldi	r23, 0x00	; 0
    192e:	64 22       	and	r6, r20
    1930:	75 22       	and	r7, r21
    1932:	86 22       	and	r8, r22
    1934:	97 22       	and	r9, r23
    1936:	8d a1       	ldd	r24, Y+37	; 0x25
    1938:	9e a1       	ldd	r25, Y+38	; 0x26
    193a:	af a1       	ldd	r26, Y+39	; 0x27
    193c:	b8 a5       	ldd	r27, Y+40	; 0x28
    193e:	bd 01       	movw	r22, r26
    1940:	88 27       	eor	r24, r24
    1942:	99 27       	eor	r25, r25
    1944:	65 96       	adiw	r28, 0x15	; 21
    1946:	6c af       	std	Y+60, r22	; 0x3c
    1948:	7d af       	std	Y+61, r23	; 0x3d
    194a:	8e af       	std	Y+62, r24	; 0x3e
    194c:	9f af       	std	Y+63, r25	; 0x3f
    194e:	65 97       	sbiw	r28, 0x15	; 21
    1950:	c6 01       	movw	r24, r12
    1952:	b5 01       	movw	r22, r10
    1954:	a4 01       	movw	r20, r8
    1956:	93 01       	movw	r18, r6
    1958:	0e 94 f2 14 	call	0x29e4	; 0x29e4 <__mulsi3>
    195c:	61 96       	adiw	r28, 0x11	; 17
    195e:	6c af       	std	Y+60, r22	; 0x3c
    1960:	7d af       	std	Y+61, r23	; 0x3d
    1962:	8e af       	std	Y+62, r24	; 0x3e
    1964:	9f af       	std	Y+63, r25	; 0x3f
    1966:	61 97       	sbiw	r28, 0x11	; 17
    1968:	c6 01       	movw	r24, r12
    196a:	b5 01       	movw	r22, r10
    196c:	65 96       	adiw	r28, 0x15	; 21
    196e:	2c ad       	ldd	r18, Y+60	; 0x3c
    1970:	3d ad       	ldd	r19, Y+61	; 0x3d
    1972:	4e ad       	ldd	r20, Y+62	; 0x3e
    1974:	5f ad       	ldd	r21, Y+63	; 0x3f
    1976:	65 97       	sbiw	r28, 0x15	; 21
    1978:	0e 94 f2 14 	call	0x29e4	; 0x29e4 <__mulsi3>
    197c:	1b 01       	movw	r2, r22
    197e:	2c 01       	movw	r4, r24
    1980:	c8 01       	movw	r24, r16
    1982:	b7 01       	movw	r22, r14
    1984:	a4 01       	movw	r20, r8
    1986:	93 01       	movw	r18, r6
    1988:	0e 94 f2 14 	call	0x29e4	; 0x29e4 <__mulsi3>
    198c:	5b 01       	movw	r10, r22
    198e:	6c 01       	movw	r12, r24
    1990:	c8 01       	movw	r24, r16
    1992:	b7 01       	movw	r22, r14
    1994:	65 96       	adiw	r28, 0x15	; 21
    1996:	2c ad       	ldd	r18, Y+60	; 0x3c
    1998:	3d ad       	ldd	r19, Y+61	; 0x3d
    199a:	4e ad       	ldd	r20, Y+62	; 0x3e
    199c:	5f ad       	ldd	r21, Y+63	; 0x3f
    199e:	65 97       	sbiw	r28, 0x15	; 21
    19a0:	0e 94 f2 14 	call	0x29e4	; 0x29e4 <__mulsi3>
    19a4:	7b 01       	movw	r14, r22
    19a6:	8c 01       	movw	r16, r24
    19a8:	a6 01       	movw	r20, r12
    19aa:	95 01       	movw	r18, r10
    19ac:	22 0d       	add	r18, r2
    19ae:	33 1d       	adc	r19, r3
    19b0:	44 1d       	adc	r20, r4
    19b2:	55 1d       	adc	r21, r5
    19b4:	61 96       	adiw	r28, 0x11	; 17
    19b6:	6c ac       	ldd	r6, Y+60	; 0x3c
    19b8:	7d ac       	ldd	r7, Y+61	; 0x3d
    19ba:	8e ac       	ldd	r8, Y+62	; 0x3e
    19bc:	9f ac       	ldd	r9, Y+63	; 0x3f
    19be:	61 97       	sbiw	r28, 0x11	; 17
    19c0:	c4 01       	movw	r24, r8
    19c2:	aa 27       	eor	r26, r26
    19c4:	bb 27       	eor	r27, r27
    19c6:	28 0f       	add	r18, r24
    19c8:	39 1f       	adc	r19, r25
    19ca:	4a 1f       	adc	r20, r26
    19cc:	5b 1f       	adc	r21, r27
    19ce:	2a 15       	cp	r18, r10
    19d0:	3b 05       	cpc	r19, r11
    19d2:	4c 05       	cpc	r20, r12
    19d4:	5d 05       	cpc	r21, r13
    19d6:	48 f4       	brcc	.+18     	; 0x19ea <__umoddi3+0xb70>
    19d8:	81 2c       	mov	r8, r1
    19da:	91 2c       	mov	r9, r1
    19dc:	e1 e0       	ldi	r30, 0x01	; 1
    19de:	ae 2e       	mov	r10, r30
    19e0:	b1 2c       	mov	r11, r1
    19e2:	e8 0c       	add	r14, r8
    19e4:	f9 1c       	adc	r15, r9
    19e6:	0a 1d       	adc	r16, r10
    19e8:	1b 1d       	adc	r17, r11
    19ea:	ca 01       	movw	r24, r20
    19ec:	aa 27       	eor	r26, r26
    19ee:	bb 27       	eor	r27, r27
    19f0:	57 01       	movw	r10, r14
    19f2:	68 01       	movw	r12, r16
    19f4:	a8 0e       	add	r10, r24
    19f6:	b9 1e       	adc	r11, r25
    19f8:	ca 1e       	adc	r12, r26
    19fa:	db 1e       	adc	r13, r27
    19fc:	a9 01       	movw	r20, r18
    19fe:	33 27       	eor	r19, r19
    1a00:	22 27       	eor	r18, r18
    1a02:	61 96       	adiw	r28, 0x11	; 17
    1a04:	8c ad       	ldd	r24, Y+60	; 0x3c
    1a06:	9d ad       	ldd	r25, Y+61	; 0x3d
    1a08:	ae ad       	ldd	r26, Y+62	; 0x3e
    1a0a:	bf ad       	ldd	r27, Y+63	; 0x3f
    1a0c:	61 97       	sbiw	r28, 0x11	; 17
    1a0e:	a0 70       	andi	r26, 0x00	; 0
    1a10:	b0 70       	andi	r27, 0x00	; 0
    1a12:	28 0f       	add	r18, r24
    1a14:	39 1f       	adc	r19, r25
    1a16:	4a 1f       	adc	r20, r26
    1a18:	5b 1f       	adc	r21, r27
    1a1a:	e9 8c       	ldd	r14, Y+25	; 0x19
    1a1c:	fa 8c       	ldd	r15, Y+26	; 0x1a
    1a1e:	0b 8d       	ldd	r16, Y+27	; 0x1b
    1a20:	1c 8d       	ldd	r17, Y+28	; 0x1c
    1a22:	ea 14       	cp	r14, r10
    1a24:	fb 04       	cpc	r15, r11
    1a26:	0c 05       	cpc	r16, r12
    1a28:	1d 05       	cpc	r17, r13
    1a2a:	70 f0       	brcs	.+28     	; 0x1a48 <__umoddi3+0xbce>
    1a2c:	ae 14       	cp	r10, r14
    1a2e:	bf 04       	cpc	r11, r15
    1a30:	c0 06       	cpc	r12, r16
    1a32:	d1 06       	cpc	r13, r17
    1a34:	69 f5       	brne	.+90     	; 0x1a90 <__umoddi3+0xc16>
    1a36:	6d 8d       	ldd	r22, Y+29	; 0x1d
    1a38:	7e 8d       	ldd	r23, Y+30	; 0x1e
    1a3a:	8f 8d       	ldd	r24, Y+31	; 0x1f
    1a3c:	98 a1       	ldd	r25, Y+32	; 0x20
    1a3e:	62 17       	cp	r22, r18
    1a40:	73 07       	cpc	r23, r19
    1a42:	84 07       	cpc	r24, r20
    1a44:	95 07       	cpc	r25, r21
    1a46:	20 f5       	brcc	.+72     	; 0x1a90 <__umoddi3+0xc16>
    1a48:	da 01       	movw	r26, r20
    1a4a:	c9 01       	movw	r24, r18
    1a4c:	6d a0       	ldd	r6, Y+37	; 0x25
    1a4e:	7e a0       	ldd	r7, Y+38	; 0x26
    1a50:	8f a0       	ldd	r8, Y+39	; 0x27
    1a52:	98 a4       	ldd	r9, Y+40	; 0x28
    1a54:	86 19       	sub	r24, r6
    1a56:	97 09       	sbc	r25, r7
    1a58:	a8 09       	sbc	r26, r8
    1a5a:	b9 09       	sbc	r27, r9
    1a5c:	e9 a4       	ldd	r14, Y+41	; 0x29
    1a5e:	fa a4       	ldd	r15, Y+42	; 0x2a
    1a60:	0b a5       	ldd	r16, Y+43	; 0x2b
    1a62:	1c a5       	ldd	r17, Y+44	; 0x2c
    1a64:	ae 18       	sub	r10, r14
    1a66:	bf 08       	sbc	r11, r15
    1a68:	c0 0a       	sbc	r12, r16
    1a6a:	d1 0a       	sbc	r13, r17
    1a6c:	ee 24       	eor	r14, r14
    1a6e:	ff 24       	eor	r15, r15
    1a70:	87 01       	movw	r16, r14
    1a72:	28 17       	cp	r18, r24
    1a74:	39 07       	cpc	r19, r25
    1a76:	4a 07       	cpc	r20, r26
    1a78:	5b 07       	cpc	r21, r27
    1a7a:	28 f4       	brcc	.+10     	; 0x1a86 <__umoddi3+0xc0c>
    1a7c:	21 e0       	ldi	r18, 0x01	; 1
    1a7e:	e2 2e       	mov	r14, r18
    1a80:	f1 2c       	mov	r15, r1
    1a82:	01 2d       	mov	r16, r1
    1a84:	11 2d       	mov	r17, r1
    1a86:	ae 18       	sub	r10, r14
    1a88:	bf 08       	sbc	r11, r15
    1a8a:	c0 0a       	sbc	r12, r16
    1a8c:	d1 0a       	sbc	r13, r17
    1a8e:	02 c0       	rjmp	.+4      	; 0x1a94 <__umoddi3+0xc1a>
    1a90:	da 01       	movw	r26, r20
    1a92:	c9 01       	movw	r24, r18
    1a94:	6d 8c       	ldd	r6, Y+29	; 0x1d
    1a96:	7e 8c       	ldd	r7, Y+30	; 0x1e
    1a98:	8f 8c       	ldd	r8, Y+31	; 0x1f
    1a9a:	98 a0       	ldd	r9, Y+32	; 0x20
    1a9c:	68 1a       	sub	r6, r24
    1a9e:	79 0a       	sbc	r7, r25
    1aa0:	8a 0a       	sbc	r8, r26
    1aa2:	9b 0a       	sbc	r9, r27
    1aa4:	49 8d       	ldd	r20, Y+25	; 0x19
    1aa6:	5a 8d       	ldd	r21, Y+26	; 0x1a
    1aa8:	6b 8d       	ldd	r22, Y+27	; 0x1b
    1aaa:	7c 8d       	ldd	r23, Y+28	; 0x1c
    1aac:	4a 19       	sub	r20, r10
    1aae:	5b 09       	sbc	r21, r11
    1ab0:	6c 09       	sbc	r22, r12
    1ab2:	7d 09       	sbc	r23, r13
    1ab4:	5a 01       	movw	r10, r20
    1ab6:	6b 01       	movw	r12, r22
    1ab8:	22 24       	eor	r2, r2
    1aba:	33 24       	eor	r3, r3
    1abc:	21 01       	movw	r4, r2
    1abe:	6d 8d       	ldd	r22, Y+29	; 0x1d
    1ac0:	7e 8d       	ldd	r23, Y+30	; 0x1e
    1ac2:	8f 8d       	ldd	r24, Y+31	; 0x1f
    1ac4:	98 a1       	ldd	r25, Y+32	; 0x20
    1ac6:	66 15       	cp	r22, r6
    1ac8:	77 05       	cpc	r23, r7
    1aca:	88 05       	cpc	r24, r8
    1acc:	99 05       	cpc	r25, r9
    1ace:	28 f4       	brcc	.+10     	; 0x1ada <__umoddi3+0xc60>
    1ad0:	81 e0       	ldi	r24, 0x01	; 1
    1ad2:	28 2e       	mov	r2, r24
    1ad4:	31 2c       	mov	r3, r1
    1ad6:	41 2c       	mov	r4, r1
    1ad8:	51 2c       	mov	r5, r1
    1ada:	86 01       	movw	r16, r12
    1adc:	75 01       	movw	r14, r10
    1ade:	e2 18       	sub	r14, r2
    1ae0:	f3 08       	sbc	r15, r3
    1ae2:	04 09       	sbc	r16, r4
    1ae4:	15 09       	sbc	r17, r5
    1ae6:	a8 01       	movw	r20, r16
    1ae8:	97 01       	movw	r18, r14
    1aea:	66 96       	adiw	r28, 0x16	; 22
    1aec:	0f ac       	ldd	r0, Y+63	; 0x3f
    1aee:	66 97       	sbiw	r28, 0x16	; 22
    1af0:	04 c0       	rjmp	.+8      	; 0x1afa <__umoddi3+0xc80>
    1af2:	22 0f       	add	r18, r18
    1af4:	33 1f       	adc	r19, r19
    1af6:	44 1f       	adc	r20, r20
    1af8:	55 1f       	adc	r21, r21
    1afa:	0a 94       	dec	r0
    1afc:	d2 f7       	brpl	.-12     	; 0x1af2 <__umoddi3+0xc78>
    1afe:	d4 01       	movw	r26, r8
    1b00:	c3 01       	movw	r24, r6
    1b02:	67 96       	adiw	r28, 0x17	; 23
    1b04:	0f ac       	ldd	r0, Y+63	; 0x3f
    1b06:	67 97       	sbiw	r28, 0x17	; 23
    1b08:	04 c0       	rjmp	.+8      	; 0x1b12 <__umoddi3+0xc98>
    1b0a:	b6 95       	lsr	r27
    1b0c:	a7 95       	ror	r26
    1b0e:	97 95       	ror	r25
    1b10:	87 95       	ror	r24
    1b12:	0a 94       	dec	r0
    1b14:	d2 f7       	brpl	.-12     	; 0x1b0a <__umoddi3+0xc90>
    1b16:	28 2b       	or	r18, r24
    1b18:	39 2b       	or	r19, r25
    1b1a:	4a 2b       	or	r20, r26
    1b1c:	5b 2b       	or	r21, r27
    1b1e:	29 8b       	std	Y+17, r18	; 0x11
    1b20:	3a 8b       	std	Y+18, r19	; 0x12
    1b22:	4b 8b       	std	Y+19, r20	; 0x13
    1b24:	5c 8b       	std	Y+20, r21	; 0x14
    1b26:	67 96       	adiw	r28, 0x17	; 23
    1b28:	0f ac       	ldd	r0, Y+63	; 0x3f
    1b2a:	67 97       	sbiw	r28, 0x17	; 23
    1b2c:	04 c0       	rjmp	.+8      	; 0x1b36 <__umoddi3+0xcbc>
    1b2e:	16 95       	lsr	r17
    1b30:	07 95       	ror	r16
    1b32:	f7 94       	ror	r15
    1b34:	e7 94       	ror	r14
    1b36:	0a 94       	dec	r0
    1b38:	d2 f7       	brpl	.-12     	; 0x1b2e <__umoddi3+0xcb4>
    1b3a:	ed 8a       	std	Y+21, r14	; 0x15
    1b3c:	fe 8a       	std	Y+22, r15	; 0x16
    1b3e:	0f 8b       	std	Y+23, r16	; 0x17
    1b40:	18 8f       	std	Y+24, r17	; 0x18
    1b42:	3a 89       	ldd	r19, Y+18	; 0x12
    1b44:	4b 89       	ldd	r20, Y+19	; 0x13
    1b46:	5c 89       	ldd	r21, Y+20	; 0x14
    1b48:	6e 2d       	mov	r22, r14
    1b4a:	7e 89       	ldd	r23, Y+22	; 0x16
    1b4c:	8f 89       	ldd	r24, Y+23	; 0x17
    1b4e:	98 8d       	ldd	r25, Y+24	; 0x18
    1b50:	c5 5a       	subi	r28, 0xA5	; 165
    1b52:	df 4f       	sbci	r29, 0xFF	; 255
    1b54:	e2 e1       	ldi	r30, 0x12	; 18
    1b56:	0c 94 4f 15 	jmp	0x2a9e	; 0x2a9e <__epilogue_restores__>

00001b5a <UART_VoidInit>:
    1b5a:	1b b8       	out	0x0b, r1	; 11
    1b5c:	88 e1       	ldi	r24, 0x18	; 24
    1b5e:	8a b9       	out	0x0a, r24	; 10
    1b60:	86 e8       	ldi	r24, 0x86	; 134
    1b62:	80 bd       	out	0x20, r24	; 32
    1b64:	87 e6       	ldi	r24, 0x67	; 103
    1b66:	89 b9       	out	0x09, r24	; 9
    1b68:	10 bc       	out	0x20, r1	; 32
    1b6a:	08 95       	ret

00001b6c <UART_VoidTransmit>:
    1b6c:	5d 9b       	sbis	0x0b, 5	; 11
    1b6e:	fe cf       	rjmp	.-4      	; 0x1b6c <UART_VoidTransmit>
    1b70:	8c b9       	out	0x0c, r24	; 12
    1b72:	08 95       	ret

00001b74 <UART_VoidRecieve>:
    1b74:	5f 9b       	sbis	0x0b, 7	; 11
    1b76:	fe cf       	rjmp	.-4      	; 0x1b74 <UART_VoidRecieve>
    1b78:	8c b1       	in	r24, 0x0c	; 12
    1b7a:	08 95       	ret

00001b7c <UART_voidWriteString>:
    1b7c:	20 e0       	ldi	r18, 0x00	; 0
    1b7e:	04 c0       	rjmp	.+8      	; 0x1b88 <UART_voidWriteString+0xc>
    1b80:	5d 9b       	sbis	0x0b, 5	; 11
    1b82:	fe cf       	rjmp	.-4      	; 0x1b80 <UART_voidWriteString+0x4>
    1b84:	ec b9       	out	0x0c, r30	; 12
    1b86:	2f 5f       	subi	r18, 0xFF	; 255
    1b88:	fc 01       	movw	r30, r24
    1b8a:	e2 0f       	add	r30, r18
    1b8c:	f1 1d       	adc	r31, r1
    1b8e:	e0 81       	ld	r30, Z
    1b90:	ee 23       	and	r30, r30
    1b92:	b1 f7       	brne	.-20     	; 0x1b80 <UART_voidWriteString+0x4>
    1b94:	08 95       	ret

00001b96 <UART_voidReadString>:
    1b96:	80 e0       	ldi	r24, 0x00	; 0
    1b98:	04 c0       	rjmp	.+8      	; 0x1ba2 <UART_voidReadString+0xc>
    1b9a:	ef 54       	subi	r30, 0x4F	; 79
    1b9c:	fe 4f       	sbci	r31, 0xFE	; 254
    1b9e:	90 83       	st	Z, r25
    1ba0:	8f 5f       	subi	r24, 0xFF	; 255
    1ba2:	5f 9b       	sbis	0x0b, 7	; 11
    1ba4:	fe cf       	rjmp	.-4      	; 0x1ba2 <UART_voidReadString+0xc>
    1ba6:	9c b1       	in	r25, 0x0c	; 12
    1ba8:	e8 2f       	mov	r30, r24
    1baa:	f0 e0       	ldi	r31, 0x00	; 0
    1bac:	95 34       	cpi	r25, 0x45	; 69
    1bae:	a9 f7       	brne	.-22     	; 0x1b9a <UART_voidReadString+0x4>
    1bb0:	ef 54       	subi	r30, 0x4F	; 79
    1bb2:	fe 4f       	sbci	r31, 0xFE	; 254
    1bb4:	10 82       	st	Z, r1
    1bb6:	81 eb       	ldi	r24, 0xB1	; 177
    1bb8:	91 e0       	ldi	r25, 0x01	; 1
    1bba:	08 95       	ret

00001bbc <TIM0_voidInit>:
    1bbc:	83 b7       	in	r24, 0x33	; 51
    1bbe:	8f 77       	andi	r24, 0x7F	; 127
    1bc0:	83 bf       	out	0x33, r24	; 51
    1bc2:	83 b7       	in	r24, 0x33	; 51
    1bc4:	80 64       	ori	r24, 0x40	; 64
    1bc6:	83 bf       	out	0x33, r24	; 51
    1bc8:	83 b7       	in	r24, 0x33	; 51
    1bca:	88 60       	ori	r24, 0x08	; 8
    1bcc:	83 bf       	out	0x33, r24	; 51
    1bce:	83 b7       	in	r24, 0x33	; 51
    1bd0:	8f 7e       	andi	r24, 0xEF	; 239
    1bd2:	83 bf       	out	0x33, r24	; 51
    1bd4:	83 b7       	in	r24, 0x33	; 51
    1bd6:	80 62       	ori	r24, 0x20	; 32
    1bd8:	83 bf       	out	0x33, r24	; 51
    1bda:	89 b7       	in	r24, 0x39	; 57
    1bdc:	8e 7f       	andi	r24, 0xFE	; 254
    1bde:	89 bf       	out	0x39, r24	; 57
    1be0:	89 b7       	in	r24, 0x39	; 57
    1be2:	8d 7f       	andi	r24, 0xFD	; 253
    1be4:	89 bf       	out	0x39, r24	; 57
    1be6:	83 b7       	in	r24, 0x33	; 51
    1be8:	84 60       	ori	r24, 0x04	; 4
    1bea:	83 bf       	out	0x33, r24	; 51
    1bec:	08 95       	ret

00001bee <TIM0_voidTovfPreload>:
    1bee:	82 bf       	out	0x32, r24	; 50
    1bf0:	08 95       	ret

00001bf2 <TIM0_voidTctcfPreload>:
    1bf2:	8c bf       	out	0x3c, r24	; 60
    1bf4:	08 95       	ret

00001bf6 <TIM0_u8GetFlag>:
    1bf6:	28 b7       	in	r18, 0x38	; 56
    1bf8:	30 e0       	ldi	r19, 0x00	; 0
    1bfa:	02 c0       	rjmp	.+4      	; 0x1c00 <TIM0_u8GetFlag+0xa>
    1bfc:	35 95       	asr	r19
    1bfe:	27 95       	ror	r18
    1c00:	8a 95       	dec	r24
    1c02:	e2 f7       	brpl	.-8      	; 0x1bfc <TIM0_u8GetFlag+0x6>
    1c04:	82 2f       	mov	r24, r18
    1c06:	81 70       	andi	r24, 0x01	; 1
    1c08:	08 95       	ret

00001c0a <TIM0_CTC_voidSetCallBack>:
    1c0a:	90 93 c8 01 	sts	0x01C8, r25
    1c0e:	80 93 c7 01 	sts	0x01C7, r24
    1c12:	08 95       	ret

00001c14 <__vector_10>:
    1c14:	1f 92       	push	r1
    1c16:	0f 92       	push	r0
    1c18:	0f b6       	in	r0, 0x3f	; 63
    1c1a:	0f 92       	push	r0
    1c1c:	11 24       	eor	r1, r1
    1c1e:	2f 93       	push	r18
    1c20:	3f 93       	push	r19
    1c22:	4f 93       	push	r20
    1c24:	5f 93       	push	r21
    1c26:	6f 93       	push	r22
    1c28:	7f 93       	push	r23
    1c2a:	8f 93       	push	r24
    1c2c:	9f 93       	push	r25
    1c2e:	af 93       	push	r26
    1c30:	bf 93       	push	r27
    1c32:	ef 93       	push	r30
    1c34:	ff 93       	push	r31
    1c36:	e0 91 c7 01 	lds	r30, 0x01C7
    1c3a:	f0 91 c8 01 	lds	r31, 0x01C8
    1c3e:	09 95       	icall
    1c40:	ff 91       	pop	r31
    1c42:	ef 91       	pop	r30
    1c44:	bf 91       	pop	r27
    1c46:	af 91       	pop	r26
    1c48:	9f 91       	pop	r25
    1c4a:	8f 91       	pop	r24
    1c4c:	7f 91       	pop	r23
    1c4e:	6f 91       	pop	r22
    1c50:	5f 91       	pop	r21
    1c52:	4f 91       	pop	r20
    1c54:	3f 91       	pop	r19
    1c56:	2f 91       	pop	r18
    1c58:	0f 90       	pop	r0
    1c5a:	0f be       	out	0x3f, r0	; 63
    1c5c:	0f 90       	pop	r0
    1c5e:	1f 90       	pop	r1
    1c60:	18 95       	reti

00001c62 <TIM0_OV_voidSetCallBack>:
    1c62:	90 93 c6 01 	sts	0x01C6, r25
    1c66:	80 93 c5 01 	sts	0x01C5, r24
    1c6a:	08 95       	ret

00001c6c <__vector_11>:
    1c6c:	1f 92       	push	r1
    1c6e:	0f 92       	push	r0
    1c70:	0f b6       	in	r0, 0x3f	; 63
    1c72:	0f 92       	push	r0
    1c74:	11 24       	eor	r1, r1
    1c76:	2f 93       	push	r18
    1c78:	3f 93       	push	r19
    1c7a:	4f 93       	push	r20
    1c7c:	5f 93       	push	r21
    1c7e:	6f 93       	push	r22
    1c80:	7f 93       	push	r23
    1c82:	8f 93       	push	r24
    1c84:	9f 93       	push	r25
    1c86:	af 93       	push	r26
    1c88:	bf 93       	push	r27
    1c8a:	ef 93       	push	r30
    1c8c:	ff 93       	push	r31
    1c8e:	e0 91 c5 01 	lds	r30, 0x01C5
    1c92:	f0 91 c6 01 	lds	r31, 0x01C6
    1c96:	09 95       	icall
    1c98:	ff 91       	pop	r31
    1c9a:	ef 91       	pop	r30
    1c9c:	bf 91       	pop	r27
    1c9e:	af 91       	pop	r26
    1ca0:	9f 91       	pop	r25
    1ca2:	8f 91       	pop	r24
    1ca4:	7f 91       	pop	r23
    1ca6:	6f 91       	pop	r22
    1ca8:	5f 91       	pop	r21
    1caa:	4f 91       	pop	r20
    1cac:	3f 91       	pop	r19
    1cae:	2f 91       	pop	r18
    1cb0:	0f 90       	pop	r0
    1cb2:	0f be       	out	0x3f, r0	; 63
    1cb4:	0f 90       	pop	r0
    1cb6:	1f 90       	pop	r1
    1cb8:	18 95       	reti

00001cba <SPI_u8SlaveTransmitReceive>:
    1cba:	8f b9       	out	0x0f, r24	; 15
    1cbc:	77 9b       	sbis	0x0e, 7	; 14
    1cbe:	fe cf       	rjmp	.-4      	; 0x1cbc <SPI_u8SlaveTransmitReceive+0x2>
    1cc0:	8f b1       	in	r24, 0x0f	; 15
    1cc2:	08 95       	ret

00001cc4 <SPI_u8MasterTransmitReceive>:
    1cc4:	1f 93       	push	r17
    1cc6:	18 2f       	mov	r17, r24
    1cc8:	81 e0       	ldi	r24, 0x01	; 1
    1cca:	64 e0       	ldi	r22, 0x04	; 4
    1ccc:	40 e0       	ldi	r20, 0x00	; 0
    1cce:	0e 94 f6 0f 	call	0x1fec	; 0x1fec <DIO_voidSetPinValue>
    1cd2:	1f b9       	out	0x0f, r17	; 15
    1cd4:	77 9b       	sbis	0x0e, 7	; 14
    1cd6:	fe cf       	rjmp	.-4      	; 0x1cd4 <SPI_u8MasterTransmitReceive+0x10>
    1cd8:	81 e0       	ldi	r24, 0x01	; 1
    1cda:	64 e0       	ldi	r22, 0x04	; 4
    1cdc:	41 e0       	ldi	r20, 0x01	; 1
    1cde:	0e 94 f6 0f 	call	0x1fec	; 0x1fec <DIO_voidSetPinValue>
    1ce2:	8f b1       	in	r24, 0x0f	; 15
    1ce4:	1f 91       	pop	r17
    1ce6:	08 95       	ret

00001ce8 <SPI_voidSlaveInit>:
    1ce8:	81 e0       	ldi	r24, 0x01	; 1
    1cea:	65 e0       	ldi	r22, 0x05	; 5
    1cec:	40 e0       	ldi	r20, 0x00	; 0
    1cee:	0e 94 88 0f 	call	0x1f10	; 0x1f10 <DIO_voidSetPinDirection>
    1cf2:	81 e0       	ldi	r24, 0x01	; 1
    1cf4:	66 e0       	ldi	r22, 0x06	; 6
    1cf6:	41 e0       	ldi	r20, 0x01	; 1
    1cf8:	0e 94 88 0f 	call	0x1f10	; 0x1f10 <DIO_voidSetPinDirection>
    1cfc:	81 e0       	ldi	r24, 0x01	; 1
    1cfe:	67 e0       	ldi	r22, 0x07	; 7
    1d00:	40 e0       	ldi	r20, 0x00	; 0
    1d02:	0e 94 88 0f 	call	0x1f10	; 0x1f10 <DIO_voidSetPinDirection>
    1d06:	81 e0       	ldi	r24, 0x01	; 1
    1d08:	64 e0       	ldi	r22, 0x04	; 4
    1d0a:	40 e0       	ldi	r20, 0x00	; 0
    1d0c:	0e 94 88 0f 	call	0x1f10	; 0x1f10 <DIO_voidSetPinDirection>
    1d10:	80 e6       	ldi	r24, 0x60	; 96
    1d12:	8d b9       	out	0x0d, r24	; 13
    1d14:	08 95       	ret

00001d16 <SPI_voidMasterInit>:
    1d16:	81 e0       	ldi	r24, 0x01	; 1
    1d18:	65 e0       	ldi	r22, 0x05	; 5
    1d1a:	41 e0       	ldi	r20, 0x01	; 1
    1d1c:	0e 94 88 0f 	call	0x1f10	; 0x1f10 <DIO_voidSetPinDirection>
    1d20:	81 e0       	ldi	r24, 0x01	; 1
    1d22:	66 e0       	ldi	r22, 0x06	; 6
    1d24:	40 e0       	ldi	r20, 0x00	; 0
    1d26:	0e 94 88 0f 	call	0x1f10	; 0x1f10 <DIO_voidSetPinDirection>
    1d2a:	81 e0       	ldi	r24, 0x01	; 1
    1d2c:	67 e0       	ldi	r22, 0x07	; 7
    1d2e:	41 e0       	ldi	r20, 0x01	; 1
    1d30:	0e 94 88 0f 	call	0x1f10	; 0x1f10 <DIO_voidSetPinDirection>
    1d34:	81 e0       	ldi	r24, 0x01	; 1
    1d36:	64 e0       	ldi	r22, 0x04	; 4
    1d38:	41 e0       	ldi	r20, 0x01	; 1
    1d3a:	0e 94 88 0f 	call	0x1f10	; 0x1f10 <DIO_voidSetPinDirection>
    1d3e:	82 e7       	ldi	r24, 0x72	; 114
    1d40:	8d b9       	out	0x0d, r24	; 13
    1d42:	1e b8       	out	0x0e, r1	; 14
    1d44:	81 e0       	ldi	r24, 0x01	; 1
    1d46:	8f b9       	out	0x0f, r24	; 15
    1d48:	08 95       	ret

00001d4a <GIE_voidEnable>:
    1d4a:	8f b7       	in	r24, 0x3f	; 63
    1d4c:	80 68       	ori	r24, 0x80	; 128
    1d4e:	8f bf       	out	0x3f, r24	; 63
    1d50:	08 95       	ret

00001d52 <GIE_voidDisable>:
    1d52:	8f b7       	in	r24, 0x3f	; 63
    1d54:	8f 77       	andi	r24, 0x7F	; 127
    1d56:	8f bf       	out	0x3f, r24	; 63
    1d58:	08 95       	ret

00001d5a <EXTI_voidSetCallBack>:
    1d5a:	e6 2f       	mov	r30, r22
    1d5c:	f0 e0       	ldi	r31, 0x00	; 0
    1d5e:	ee 0f       	add	r30, r30
    1d60:	ff 1f       	adc	r31, r31
    1d62:	e7 53       	subi	r30, 0x37	; 55
    1d64:	fe 4f       	sbci	r31, 0xFE	; 254
    1d66:	91 83       	std	Z+1, r25	; 0x01
    1d68:	80 83       	st	Z, r24
    1d6a:	08 95       	ret

00001d6c <__vector_1>:
    1d6c:	1f 92       	push	r1
    1d6e:	0f 92       	push	r0
    1d70:	0f b6       	in	r0, 0x3f	; 63
    1d72:	0f 92       	push	r0
    1d74:	11 24       	eor	r1, r1
    1d76:	2f 93       	push	r18
    1d78:	3f 93       	push	r19
    1d7a:	4f 93       	push	r20
    1d7c:	5f 93       	push	r21
    1d7e:	6f 93       	push	r22
    1d80:	7f 93       	push	r23
    1d82:	8f 93       	push	r24
    1d84:	9f 93       	push	r25
    1d86:	af 93       	push	r26
    1d88:	bf 93       	push	r27
    1d8a:	ef 93       	push	r30
    1d8c:	ff 93       	push	r31
    1d8e:	e0 91 c9 01 	lds	r30, 0x01C9
    1d92:	f0 91 ca 01 	lds	r31, 0x01CA
    1d96:	09 95       	icall
    1d98:	ff 91       	pop	r31
    1d9a:	ef 91       	pop	r30
    1d9c:	bf 91       	pop	r27
    1d9e:	af 91       	pop	r26
    1da0:	9f 91       	pop	r25
    1da2:	8f 91       	pop	r24
    1da4:	7f 91       	pop	r23
    1da6:	6f 91       	pop	r22
    1da8:	5f 91       	pop	r21
    1daa:	4f 91       	pop	r20
    1dac:	3f 91       	pop	r19
    1dae:	2f 91       	pop	r18
    1db0:	0f 90       	pop	r0
    1db2:	0f be       	out	0x3f, r0	; 63
    1db4:	0f 90       	pop	r0
    1db6:	1f 90       	pop	r1
    1db8:	18 95       	reti

00001dba <__vector_2>:
    1dba:	e0 91 cb 01 	lds	r30, 0x01CB
    1dbe:	f0 91 cc 01 	lds	r31, 0x01CC
    1dc2:	09 95       	icall
    1dc4:	08 95       	ret

00001dc6 <__vector_3>:
    1dc6:	e0 91 cd 01 	lds	r30, 0x01CD
    1dca:	f0 91 ce 01 	lds	r31, 0x01CE
    1dce:	09 95       	icall
    1dd0:	08 95       	ret

00001dd2 <EXTI_voidEnable>:
    1dd2:	82 30       	cpi	r24, 0x02	; 2
    1dd4:	09 f4       	brne	.+2      	; 0x1dd8 <EXTI_voidEnable+0x6>
    1dd6:	8f ef       	ldi	r24, 0xFF	; 255
    1dd8:	4b b7       	in	r20, 0x3b	; 59
    1dda:	28 2f       	mov	r18, r24
    1ddc:	33 27       	eor	r19, r19
    1dde:	27 fd       	sbrc	r18, 7
    1de0:	30 95       	com	r19
    1de2:	2a 5f       	subi	r18, 0xFA	; 250
    1de4:	3f 4f       	sbci	r19, 0xFF	; 255
    1de6:	81 e0       	ldi	r24, 0x01	; 1
    1de8:	90 e0       	ldi	r25, 0x00	; 0
    1dea:	02 c0       	rjmp	.+4      	; 0x1df0 <EXTI_voidEnable+0x1e>
    1dec:	88 0f       	add	r24, r24
    1dee:	99 1f       	adc	r25, r25
    1df0:	2a 95       	dec	r18
    1df2:	e2 f7       	brpl	.-8      	; 0x1dec <EXTI_voidEnable+0x1a>
    1df4:	48 2b       	or	r20, r24
    1df6:	4b bf       	out	0x3b, r20	; 59
    1df8:	08 95       	ret

00001dfa <EXTI_voidDisable>:
    1dfa:	82 30       	cpi	r24, 0x02	; 2
    1dfc:	09 f4       	brne	.+2      	; 0x1e00 <EXTI_voidDisable+0x6>
    1dfe:	8f ef       	ldi	r24, 0xFF	; 255
    1e00:	4b b7       	in	r20, 0x3b	; 59
    1e02:	28 2f       	mov	r18, r24
    1e04:	33 27       	eor	r19, r19
    1e06:	27 fd       	sbrc	r18, 7
    1e08:	30 95       	com	r19
    1e0a:	2a 5f       	subi	r18, 0xFA	; 250
    1e0c:	3f 4f       	sbci	r19, 0xFF	; 255
    1e0e:	81 e0       	ldi	r24, 0x01	; 1
    1e10:	90 e0       	ldi	r25, 0x00	; 0
    1e12:	02 c0       	rjmp	.+4      	; 0x1e18 <EXTI_voidDisable+0x1e>
    1e14:	88 0f       	add	r24, r24
    1e16:	99 1f       	adc	r25, r25
    1e18:	2a 95       	dec	r18
    1e1a:	e2 f7       	brpl	.-8      	; 0x1e14 <EXTI_voidDisable+0x1a>
    1e1c:	80 95       	com	r24
    1e1e:	84 23       	and	r24, r20
    1e20:	8b bf       	out	0x3b, r24	; 59
    1e22:	08 95       	ret

00001e24 <EXTI_voidClearFlag>:
    1e24:	82 30       	cpi	r24, 0x02	; 2
    1e26:	09 f4       	brne	.+2      	; 0x1e2a <EXTI_voidClearFlag+0x6>
    1e28:	8f ef       	ldi	r24, 0xFF	; 255
    1e2a:	4a b7       	in	r20, 0x3a	; 58
    1e2c:	28 2f       	mov	r18, r24
    1e2e:	33 27       	eor	r19, r19
    1e30:	27 fd       	sbrc	r18, 7
    1e32:	30 95       	com	r19
    1e34:	2a 5f       	subi	r18, 0xFA	; 250
    1e36:	3f 4f       	sbci	r19, 0xFF	; 255
    1e38:	81 e0       	ldi	r24, 0x01	; 1
    1e3a:	90 e0       	ldi	r25, 0x00	; 0
    1e3c:	02 c0       	rjmp	.+4      	; 0x1e42 <EXTI_voidClearFlag+0x1e>
    1e3e:	88 0f       	add	r24, r24
    1e40:	99 1f       	adc	r25, r25
    1e42:	2a 95       	dec	r18
    1e44:	e2 f7       	brpl	.-8      	; 0x1e3e <EXTI_voidClearFlag+0x1a>
    1e46:	48 2b       	or	r20, r24
    1e48:	4a bf       	out	0x3a, r20	; 58
    1e4a:	08 95       	ret

00001e4c <EXTI_voidSetSignalLatch>:
    1e4c:	1f 93       	push	r17
    1e4e:	16 2f       	mov	r17, r22
    1e50:	88 23       	and	r24, r24
    1e52:	31 f4       	brne	.+12     	; 0x1e60 <EXTI_voidSetSignalLatch+0x14>
    1e54:	83 e0       	ldi	r24, 0x03	; 3
    1e56:	62 e0       	ldi	r22, 0x02	; 2
    1e58:	40 e0       	ldi	r20, 0x00	; 0
    1e5a:	0e 94 88 0f 	call	0x1f10	; 0x1f10 <DIO_voidSetPinDirection>
    1e5e:	09 c0       	rjmp	.+18     	; 0x1e72 <EXTI_voidSetSignalLatch+0x26>
    1e60:	81 30       	cpi	r24, 0x01	; 1
    1e62:	49 f4       	brne	.+18     	; 0x1e76 <EXTI_voidSetSignalLatch+0x2a>
    1e64:	83 e0       	ldi	r24, 0x03	; 3
    1e66:	63 e0       	ldi	r22, 0x03	; 3
    1e68:	40 e0       	ldi	r20, 0x00	; 0
    1e6a:	0e 94 88 0f 	call	0x1f10	; 0x1f10 <DIO_voidSetPinDirection>
    1e6e:	11 0f       	add	r17, r17
    1e70:	11 0f       	add	r17, r17
    1e72:	15 bf       	out	0x35, r17	; 53
    1e74:	0d c0       	rjmp	.+26     	; 0x1e90 <EXTI_voidSetSignalLatch+0x44>
    1e76:	82 30       	cpi	r24, 0x02	; 2
    1e78:	59 f4       	brne	.+22     	; 0x1e90 <EXTI_voidSetSignalLatch+0x44>
    1e7a:	81 e0       	ldi	r24, 0x01	; 1
    1e7c:	62 e0       	ldi	r22, 0x02	; 2
    1e7e:	40 e0       	ldi	r20, 0x00	; 0
    1e80:	0e 94 88 0f 	call	0x1f10	; 0x1f10 <DIO_voidSetPinDirection>
    1e84:	12 50       	subi	r17, 0x02	; 2
    1e86:	12 95       	swap	r17
    1e88:	11 0f       	add	r17, r17
    1e8a:	11 0f       	add	r17, r17
    1e8c:	10 7c       	andi	r17, 0xC0	; 192
    1e8e:	14 bf       	out	0x34, r17	; 52
    1e90:	1f 91       	pop	r17
    1e92:	08 95       	ret

00001e94 <EXTI_voidInit>:
    1e94:	15 be       	out	0x35, r1	; 53
    1e96:	14 be       	out	0x34, r1	; 52
    1e98:	83 e0       	ldi	r24, 0x03	; 3
    1e9a:	62 e0       	ldi	r22, 0x02	; 2
    1e9c:	40 e0       	ldi	r20, 0x00	; 0
    1e9e:	0e 94 88 0f 	call	0x1f10	; 0x1f10 <DIO_voidSetPinDirection>
    1ea2:	83 e0       	ldi	r24, 0x03	; 3
    1ea4:	85 bf       	out	0x35, r24	; 53
    1ea6:	08 95       	ret

00001ea8 <DIO_voidSetPortDirection>:
    1ea8:	81 30       	cpi	r24, 0x01	; 1
    1eaa:	49 f0       	breq	.+18     	; 0x1ebe <DIO_voidSetPortDirection+0x16>
    1eac:	81 30       	cpi	r24, 0x01	; 1
    1eae:	28 f0       	brcs	.+10     	; 0x1eba <DIO_voidSetPortDirection+0x12>
    1eb0:	82 30       	cpi	r24, 0x02	; 2
    1eb2:	39 f0       	breq	.+14     	; 0x1ec2 <DIO_voidSetPortDirection+0x1a>
    1eb4:	83 30       	cpi	r24, 0x03	; 3
    1eb6:	41 f4       	brne	.+16     	; 0x1ec8 <DIO_voidSetPortDirection+0x20>
    1eb8:	06 c0       	rjmp	.+12     	; 0x1ec6 <DIO_voidSetPortDirection+0x1e>
    1eba:	6a bb       	out	0x1a, r22	; 26
    1ebc:	08 95       	ret
    1ebe:	67 bb       	out	0x17, r22	; 23
    1ec0:	08 95       	ret
    1ec2:	64 bb       	out	0x14, r22	; 20
    1ec4:	08 95       	ret
    1ec6:	61 bb       	out	0x11, r22	; 17
    1ec8:	08 95       	ret

00001eca <DIO_voidSetPortValue>:
    1eca:	81 30       	cpi	r24, 0x01	; 1
    1ecc:	49 f0       	breq	.+18     	; 0x1ee0 <DIO_voidSetPortValue+0x16>
    1ece:	81 30       	cpi	r24, 0x01	; 1
    1ed0:	28 f0       	brcs	.+10     	; 0x1edc <DIO_voidSetPortValue+0x12>
    1ed2:	82 30       	cpi	r24, 0x02	; 2
    1ed4:	39 f0       	breq	.+14     	; 0x1ee4 <DIO_voidSetPortValue+0x1a>
    1ed6:	83 30       	cpi	r24, 0x03	; 3
    1ed8:	41 f4       	brne	.+16     	; 0x1eea <DIO_voidSetPortValue+0x20>
    1eda:	06 c0       	rjmp	.+12     	; 0x1ee8 <DIO_voidSetPortValue+0x1e>
    1edc:	6b bb       	out	0x1b, r22	; 27
    1ede:	08 95       	ret
    1ee0:	68 bb       	out	0x18, r22	; 24
    1ee2:	08 95       	ret
    1ee4:	65 bb       	out	0x15, r22	; 21
    1ee6:	08 95       	ret
    1ee8:	62 bb       	out	0x12, r22	; 18
    1eea:	08 95       	ret

00001eec <DIO_u8GetPortValue>:
    1eec:	81 30       	cpi	r24, 0x01	; 1
    1eee:	51 f0       	breq	.+20     	; 0x1f04 <DIO_u8GetPortValue+0x18>
    1ef0:	81 30       	cpi	r24, 0x01	; 1
    1ef2:	30 f0       	brcs	.+12     	; 0x1f00 <DIO_u8GetPortValue+0x14>
    1ef4:	82 30       	cpi	r24, 0x02	; 2
    1ef6:	41 f0       	breq	.+16     	; 0x1f08 <DIO_u8GetPortValue+0x1c>
    1ef8:	83 30       	cpi	r24, 0x03	; 3
    1efa:	41 f0       	breq	.+16     	; 0x1f0c <DIO_u8GetPortValue+0x20>
    1efc:	80 e0       	ldi	r24, 0x00	; 0
    1efe:	08 95       	ret
    1f00:	89 b3       	in	r24, 0x19	; 25
    1f02:	08 95       	ret
    1f04:	86 b3       	in	r24, 0x16	; 22
    1f06:	08 95       	ret
    1f08:	83 b3       	in	r24, 0x13	; 19
    1f0a:	08 95       	ret
    1f0c:	80 b3       	in	r24, 0x10	; 16
    1f0e:	08 95       	ret

00001f10 <DIO_voidSetPinDirection>:
    1f10:	81 30       	cpi	r24, 0x01	; 1
    1f12:	09 f1       	breq	.+66     	; 0x1f56 <DIO_voidSetPinDirection+0x46>
    1f14:	81 30       	cpi	r24, 0x01	; 1
    1f16:	30 f0       	brcs	.+12     	; 0x1f24 <DIO_voidSetPinDirection+0x14>
    1f18:	82 30       	cpi	r24, 0x02	; 2
    1f1a:	b1 f1       	breq	.+108    	; 0x1f88 <DIO_voidSetPinDirection+0x78>
    1f1c:	83 30       	cpi	r24, 0x03	; 3
    1f1e:	09 f0       	breq	.+2      	; 0x1f22 <DIO_voidSetPinDirection+0x12>
    1f20:	64 c0       	rjmp	.+200    	; 0x1fea <DIO_voidSetPinDirection+0xda>
    1f22:	4b c0       	rjmp	.+150    	; 0x1fba <DIO_voidSetPinDirection+0xaa>
    1f24:	41 30       	cpi	r20, 0x01	; 1
    1f26:	59 f4       	brne	.+22     	; 0x1f3e <DIO_voidSetPinDirection+0x2e>
    1f28:	2a b3       	in	r18, 0x1a	; 26
    1f2a:	81 e0       	ldi	r24, 0x01	; 1
    1f2c:	90 e0       	ldi	r25, 0x00	; 0
    1f2e:	02 c0       	rjmp	.+4      	; 0x1f34 <DIO_voidSetPinDirection+0x24>
    1f30:	88 0f       	add	r24, r24
    1f32:	99 1f       	adc	r25, r25
    1f34:	6a 95       	dec	r22
    1f36:	e2 f7       	brpl	.-8      	; 0x1f30 <DIO_voidSetPinDirection+0x20>
    1f38:	28 2b       	or	r18, r24
    1f3a:	2a bb       	out	0x1a, r18	; 26
    1f3c:	08 95       	ret
    1f3e:	2a b3       	in	r18, 0x1a	; 26
    1f40:	81 e0       	ldi	r24, 0x01	; 1
    1f42:	90 e0       	ldi	r25, 0x00	; 0
    1f44:	02 c0       	rjmp	.+4      	; 0x1f4a <DIO_voidSetPinDirection+0x3a>
    1f46:	88 0f       	add	r24, r24
    1f48:	99 1f       	adc	r25, r25
    1f4a:	6a 95       	dec	r22
    1f4c:	e2 f7       	brpl	.-8      	; 0x1f46 <DIO_voidSetPinDirection+0x36>
    1f4e:	80 95       	com	r24
    1f50:	82 23       	and	r24, r18
    1f52:	8a bb       	out	0x1a, r24	; 26
    1f54:	08 95       	ret
    1f56:	41 30       	cpi	r20, 0x01	; 1
    1f58:	59 f4       	brne	.+22     	; 0x1f70 <DIO_voidSetPinDirection+0x60>
    1f5a:	27 b3       	in	r18, 0x17	; 23
    1f5c:	81 e0       	ldi	r24, 0x01	; 1
    1f5e:	90 e0       	ldi	r25, 0x00	; 0
    1f60:	02 c0       	rjmp	.+4      	; 0x1f66 <DIO_voidSetPinDirection+0x56>
    1f62:	88 0f       	add	r24, r24
    1f64:	99 1f       	adc	r25, r25
    1f66:	6a 95       	dec	r22
    1f68:	e2 f7       	brpl	.-8      	; 0x1f62 <DIO_voidSetPinDirection+0x52>
    1f6a:	28 2b       	or	r18, r24
    1f6c:	27 bb       	out	0x17, r18	; 23
    1f6e:	08 95       	ret
    1f70:	27 b3       	in	r18, 0x17	; 23
    1f72:	81 e0       	ldi	r24, 0x01	; 1
    1f74:	90 e0       	ldi	r25, 0x00	; 0
    1f76:	02 c0       	rjmp	.+4      	; 0x1f7c <DIO_voidSetPinDirection+0x6c>
    1f78:	88 0f       	add	r24, r24
    1f7a:	99 1f       	adc	r25, r25
    1f7c:	6a 95       	dec	r22
    1f7e:	e2 f7       	brpl	.-8      	; 0x1f78 <DIO_voidSetPinDirection+0x68>
    1f80:	80 95       	com	r24
    1f82:	82 23       	and	r24, r18
    1f84:	87 bb       	out	0x17, r24	; 23
    1f86:	08 95       	ret
    1f88:	41 30       	cpi	r20, 0x01	; 1
    1f8a:	59 f4       	brne	.+22     	; 0x1fa2 <DIO_voidSetPinDirection+0x92>
    1f8c:	24 b3       	in	r18, 0x14	; 20
    1f8e:	81 e0       	ldi	r24, 0x01	; 1
    1f90:	90 e0       	ldi	r25, 0x00	; 0
    1f92:	02 c0       	rjmp	.+4      	; 0x1f98 <DIO_voidSetPinDirection+0x88>
    1f94:	88 0f       	add	r24, r24
    1f96:	99 1f       	adc	r25, r25
    1f98:	6a 95       	dec	r22
    1f9a:	e2 f7       	brpl	.-8      	; 0x1f94 <DIO_voidSetPinDirection+0x84>
    1f9c:	28 2b       	or	r18, r24
    1f9e:	24 bb       	out	0x14, r18	; 20
    1fa0:	08 95       	ret
    1fa2:	24 b3       	in	r18, 0x14	; 20
    1fa4:	81 e0       	ldi	r24, 0x01	; 1
    1fa6:	90 e0       	ldi	r25, 0x00	; 0
    1fa8:	02 c0       	rjmp	.+4      	; 0x1fae <DIO_voidSetPinDirection+0x9e>
    1faa:	88 0f       	add	r24, r24
    1fac:	99 1f       	adc	r25, r25
    1fae:	6a 95       	dec	r22
    1fb0:	e2 f7       	brpl	.-8      	; 0x1faa <DIO_voidSetPinDirection+0x9a>
    1fb2:	80 95       	com	r24
    1fb4:	82 23       	and	r24, r18
    1fb6:	84 bb       	out	0x14, r24	; 20
    1fb8:	08 95       	ret
    1fba:	41 30       	cpi	r20, 0x01	; 1
    1fbc:	59 f4       	brne	.+22     	; 0x1fd4 <DIO_voidSetPinDirection+0xc4>
    1fbe:	21 b3       	in	r18, 0x11	; 17
    1fc0:	81 e0       	ldi	r24, 0x01	; 1
    1fc2:	90 e0       	ldi	r25, 0x00	; 0
    1fc4:	02 c0       	rjmp	.+4      	; 0x1fca <DIO_voidSetPinDirection+0xba>
    1fc6:	88 0f       	add	r24, r24
    1fc8:	99 1f       	adc	r25, r25
    1fca:	6a 95       	dec	r22
    1fcc:	e2 f7       	brpl	.-8      	; 0x1fc6 <DIO_voidSetPinDirection+0xb6>
    1fce:	28 2b       	or	r18, r24
    1fd0:	21 bb       	out	0x11, r18	; 17
    1fd2:	08 95       	ret
    1fd4:	21 b3       	in	r18, 0x11	; 17
    1fd6:	81 e0       	ldi	r24, 0x01	; 1
    1fd8:	90 e0       	ldi	r25, 0x00	; 0
    1fda:	02 c0       	rjmp	.+4      	; 0x1fe0 <DIO_voidSetPinDirection+0xd0>
    1fdc:	88 0f       	add	r24, r24
    1fde:	99 1f       	adc	r25, r25
    1fe0:	6a 95       	dec	r22
    1fe2:	e2 f7       	brpl	.-8      	; 0x1fdc <DIO_voidSetPinDirection+0xcc>
    1fe4:	80 95       	com	r24
    1fe6:	82 23       	and	r24, r18
    1fe8:	81 bb       	out	0x11, r24	; 17
    1fea:	08 95       	ret

00001fec <DIO_voidSetPinValue>:
    1fec:	81 30       	cpi	r24, 0x01	; 1
    1fee:	09 f1       	breq	.+66     	; 0x2032 <DIO_voidSetPinValue+0x46>
    1ff0:	81 30       	cpi	r24, 0x01	; 1
    1ff2:	30 f0       	brcs	.+12     	; 0x2000 <DIO_voidSetPinValue+0x14>
    1ff4:	82 30       	cpi	r24, 0x02	; 2
    1ff6:	b1 f1       	breq	.+108    	; 0x2064 <DIO_voidSetPinValue+0x78>
    1ff8:	83 30       	cpi	r24, 0x03	; 3
    1ffa:	09 f0       	breq	.+2      	; 0x1ffe <DIO_voidSetPinValue+0x12>
    1ffc:	64 c0       	rjmp	.+200    	; 0x20c6 <DIO_voidSetPinValue+0xda>
    1ffe:	4b c0       	rjmp	.+150    	; 0x2096 <DIO_voidSetPinValue+0xaa>
    2000:	41 30       	cpi	r20, 0x01	; 1
    2002:	59 f4       	brne	.+22     	; 0x201a <DIO_voidSetPinValue+0x2e>
    2004:	2b b3       	in	r18, 0x1b	; 27
    2006:	81 e0       	ldi	r24, 0x01	; 1
    2008:	90 e0       	ldi	r25, 0x00	; 0
    200a:	02 c0       	rjmp	.+4      	; 0x2010 <DIO_voidSetPinValue+0x24>
    200c:	88 0f       	add	r24, r24
    200e:	99 1f       	adc	r25, r25
    2010:	6a 95       	dec	r22
    2012:	e2 f7       	brpl	.-8      	; 0x200c <DIO_voidSetPinValue+0x20>
    2014:	28 2b       	or	r18, r24
    2016:	2b bb       	out	0x1b, r18	; 27
    2018:	08 95       	ret
    201a:	2b b3       	in	r18, 0x1b	; 27
    201c:	81 e0       	ldi	r24, 0x01	; 1
    201e:	90 e0       	ldi	r25, 0x00	; 0
    2020:	02 c0       	rjmp	.+4      	; 0x2026 <DIO_voidSetPinValue+0x3a>
    2022:	88 0f       	add	r24, r24
    2024:	99 1f       	adc	r25, r25
    2026:	6a 95       	dec	r22
    2028:	e2 f7       	brpl	.-8      	; 0x2022 <DIO_voidSetPinValue+0x36>
    202a:	80 95       	com	r24
    202c:	82 23       	and	r24, r18
    202e:	8b bb       	out	0x1b, r24	; 27
    2030:	08 95       	ret
    2032:	41 30       	cpi	r20, 0x01	; 1
    2034:	59 f4       	brne	.+22     	; 0x204c <DIO_voidSetPinValue+0x60>
    2036:	28 b3       	in	r18, 0x18	; 24
    2038:	81 e0       	ldi	r24, 0x01	; 1
    203a:	90 e0       	ldi	r25, 0x00	; 0
    203c:	02 c0       	rjmp	.+4      	; 0x2042 <DIO_voidSetPinValue+0x56>
    203e:	88 0f       	add	r24, r24
    2040:	99 1f       	adc	r25, r25
    2042:	6a 95       	dec	r22
    2044:	e2 f7       	brpl	.-8      	; 0x203e <DIO_voidSetPinValue+0x52>
    2046:	28 2b       	or	r18, r24
    2048:	28 bb       	out	0x18, r18	; 24
    204a:	08 95       	ret
    204c:	28 b3       	in	r18, 0x18	; 24
    204e:	81 e0       	ldi	r24, 0x01	; 1
    2050:	90 e0       	ldi	r25, 0x00	; 0
    2052:	02 c0       	rjmp	.+4      	; 0x2058 <DIO_voidSetPinValue+0x6c>
    2054:	88 0f       	add	r24, r24
    2056:	99 1f       	adc	r25, r25
    2058:	6a 95       	dec	r22
    205a:	e2 f7       	brpl	.-8      	; 0x2054 <DIO_voidSetPinValue+0x68>
    205c:	80 95       	com	r24
    205e:	82 23       	and	r24, r18
    2060:	88 bb       	out	0x18, r24	; 24
    2062:	08 95       	ret
    2064:	41 30       	cpi	r20, 0x01	; 1
    2066:	59 f4       	brne	.+22     	; 0x207e <DIO_voidSetPinValue+0x92>
    2068:	25 b3       	in	r18, 0x15	; 21
    206a:	81 e0       	ldi	r24, 0x01	; 1
    206c:	90 e0       	ldi	r25, 0x00	; 0
    206e:	02 c0       	rjmp	.+4      	; 0x2074 <DIO_voidSetPinValue+0x88>
    2070:	88 0f       	add	r24, r24
    2072:	99 1f       	adc	r25, r25
    2074:	6a 95       	dec	r22
    2076:	e2 f7       	brpl	.-8      	; 0x2070 <DIO_voidSetPinValue+0x84>
    2078:	28 2b       	or	r18, r24
    207a:	25 bb       	out	0x15, r18	; 21
    207c:	08 95       	ret
    207e:	25 b3       	in	r18, 0x15	; 21
    2080:	81 e0       	ldi	r24, 0x01	; 1
    2082:	90 e0       	ldi	r25, 0x00	; 0
    2084:	02 c0       	rjmp	.+4      	; 0x208a <DIO_voidSetPinValue+0x9e>
    2086:	88 0f       	add	r24, r24
    2088:	99 1f       	adc	r25, r25
    208a:	6a 95       	dec	r22
    208c:	e2 f7       	brpl	.-8      	; 0x2086 <DIO_voidSetPinValue+0x9a>
    208e:	80 95       	com	r24
    2090:	82 23       	and	r24, r18
    2092:	85 bb       	out	0x15, r24	; 21
    2094:	08 95       	ret
    2096:	41 30       	cpi	r20, 0x01	; 1
    2098:	59 f4       	brne	.+22     	; 0x20b0 <DIO_voidSetPinValue+0xc4>
    209a:	22 b3       	in	r18, 0x12	; 18
    209c:	81 e0       	ldi	r24, 0x01	; 1
    209e:	90 e0       	ldi	r25, 0x00	; 0
    20a0:	02 c0       	rjmp	.+4      	; 0x20a6 <DIO_voidSetPinValue+0xba>
    20a2:	88 0f       	add	r24, r24
    20a4:	99 1f       	adc	r25, r25
    20a6:	6a 95       	dec	r22
    20a8:	e2 f7       	brpl	.-8      	; 0x20a2 <DIO_voidSetPinValue+0xb6>
    20aa:	28 2b       	or	r18, r24
    20ac:	22 bb       	out	0x12, r18	; 18
    20ae:	08 95       	ret
    20b0:	22 b3       	in	r18, 0x12	; 18
    20b2:	81 e0       	ldi	r24, 0x01	; 1
    20b4:	90 e0       	ldi	r25, 0x00	; 0
    20b6:	02 c0       	rjmp	.+4      	; 0x20bc <DIO_voidSetPinValue+0xd0>
    20b8:	88 0f       	add	r24, r24
    20ba:	99 1f       	adc	r25, r25
    20bc:	6a 95       	dec	r22
    20be:	e2 f7       	brpl	.-8      	; 0x20b8 <DIO_voidSetPinValue+0xcc>
    20c0:	80 95       	com	r24
    20c2:	82 23       	and	r24, r18
    20c4:	82 bb       	out	0x12, r24	; 18
    20c6:	08 95       	ret

000020c8 <DIO_u8GetPinValue>:
    20c8:	81 30       	cpi	r24, 0x01	; 1
    20ca:	51 f0       	breq	.+20     	; 0x20e0 <DIO_u8GetPinValue+0x18>
    20cc:	81 30       	cpi	r24, 0x01	; 1
    20ce:	30 f0       	brcs	.+12     	; 0x20dc <DIO_u8GetPinValue+0x14>
    20d0:	82 30       	cpi	r24, 0x02	; 2
    20d2:	41 f0       	breq	.+16     	; 0x20e4 <DIO_u8GetPinValue+0x1c>
    20d4:	83 30       	cpi	r24, 0x03	; 3
    20d6:	79 f0       	breq	.+30     	; 0x20f6 <DIO_u8GetPinValue+0x2e>
    20d8:	80 e0       	ldi	r24, 0x00	; 0
    20da:	08 95       	ret
    20dc:	89 b3       	in	r24, 0x19	; 25
    20de:	03 c0       	rjmp	.+6      	; 0x20e6 <DIO_u8GetPinValue+0x1e>
    20e0:	86 b3       	in	r24, 0x16	; 22
    20e2:	01 c0       	rjmp	.+2      	; 0x20e6 <DIO_u8GetPinValue+0x1e>
    20e4:	83 b3       	in	r24, 0x13	; 19
    20e6:	90 e0       	ldi	r25, 0x00	; 0
    20e8:	02 c0       	rjmp	.+4      	; 0x20ee <DIO_u8GetPinValue+0x26>
    20ea:	95 95       	asr	r25
    20ec:	87 95       	ror	r24
    20ee:	6a 95       	dec	r22
    20f0:	e2 f7       	brpl	.-8      	; 0x20ea <DIO_u8GetPinValue+0x22>
    20f2:	81 70       	andi	r24, 0x01	; 1
    20f4:	08 95       	ret
    20f6:	80 b3       	in	r24, 0x10	; 16
    20f8:	90 e0       	ldi	r25, 0x00	; 0
    20fa:	02 c0       	rjmp	.+4      	; 0x2100 <DIO_u8GetPinValue+0x38>
    20fc:	95 95       	asr	r25
    20fe:	87 95       	ror	r24
    2100:	6a 95       	dec	r22
    2102:	e2 f7       	brpl	.-8      	; 0x20fc <DIO_u8GetPinValue+0x34>
    2104:	81 70       	andi	r24, 0x01	; 1
    2106:	08 95       	ret

00002108 <ADC_voidINIT>:
    2108:	80 e4       	ldi	r24, 0x40	; 64
    210a:	87 b9       	out	0x07, r24	; 7
    210c:	87 e9       	ldi	r24, 0x97	; 151
    210e:	86 b9       	out	0x06, r24	; 6
    2110:	08 95       	ret

00002112 <ADC_voidSetType>:
    2112:	97 b1       	in	r25, 0x07	; 7
    2114:	98 2b       	or	r25, r24
    2116:	97 b9       	out	0x07, r25	; 7
    2118:	08 95       	ret

0000211a <ADC_u16GetResult>:
    211a:	36 9a       	sbi	0x06, 6	; 6
    211c:	34 9b       	sbis	0x06, 4	; 6
    211e:	fe cf       	rjmp	.-4      	; 0x211c <ADC_u16GetResult+0x2>
    2120:	34 9a       	sbi	0x06, 4	; 6
    2122:	24 b1       	in	r18, 0x04	; 4
    2124:	45 b1       	in	r20, 0x05	; 5
    2126:	94 2f       	mov	r25, r20
    2128:	80 e0       	ldi	r24, 0x00	; 0
    212a:	30 e0       	ldi	r19, 0x00	; 0
    212c:	28 2b       	or	r18, r24
    212e:	39 2b       	or	r19, r25
    2130:	c9 01       	movw	r24, r18
    2132:	08 95       	ret

00002134 <ADC_voidSetAutoTrigger>:
    2134:	35 9a       	sbi	0x06, 5	; 6
    2136:	90 b7       	in	r25, 0x30	; 48
    2138:	98 2b       	or	r25, r24
    213a:	90 bf       	out	0x30, r25	; 48
    213c:	08 95       	ret

0000213e <SW_u8GetPressed>:
    213e:	0f 93       	push	r16
    2140:	1f 93       	push	r17
    2142:	df 93       	push	r29
    2144:	cf 93       	push	r28
    2146:	00 d0       	rcall	.+0      	; 0x2148 <SW_u8GetPressed+0xa>
    2148:	0f 92       	push	r0
    214a:	cd b7       	in	r28, 0x3d	; 61
    214c:	de b7       	in	r29, 0x3e	; 62
    214e:	69 83       	std	Y+1, r22	; 0x01
    2150:	7a 83       	std	Y+2, r23	; 0x02
    2152:	8b 83       	std	Y+3, r24	; 0x03
    2154:	16 2f       	mov	r17, r22
    2156:	07 2f       	mov	r16, r23
    2158:	86 2f       	mov	r24, r22
    215a:	67 2f       	mov	r22, r23
    215c:	40 e0       	ldi	r20, 0x00	; 0
    215e:	0e 94 88 0f 	call	0x1f10	; 0x1f10 <DIO_voidSetPinDirection>
    2162:	8b 81       	ldd	r24, Y+3	; 0x03
    2164:	81 30       	cpi	r24, 0x01	; 1
    2166:	91 f4       	brne	.+36     	; 0x218c <SW_u8GetPressed+0x4e>
    2168:	81 2f       	mov	r24, r17
    216a:	60 2f       	mov	r22, r16
    216c:	0e 94 64 10 	call	0x20c8	; 0x20c8 <DIO_u8GetPinValue>
    2170:	88 23       	and	r24, r24
    2172:	f9 f4       	brne	.+62     	; 0x21b2 <SW_u8GetPressed+0x74>
    2174:	80 e4       	ldi	r24, 0x40	; 64
    2176:	9c e9       	ldi	r25, 0x9C	; 156
    2178:	01 97       	sbiw	r24, 0x01	; 1
    217a:	f1 f7       	brne	.-4      	; 0x2178 <SW_u8GetPressed+0x3a>
    217c:	81 2f       	mov	r24, r17
    217e:	60 2f       	mov	r22, r16
    2180:	0e 94 64 10 	call	0x20c8	; 0x20c8 <DIO_u8GetPinValue>
    2184:	90 e0       	ldi	r25, 0x00	; 0
    2186:	88 23       	and	r24, r24
    2188:	a9 f4       	brne	.+42     	; 0x21b4 <SW_u8GetPressed+0x76>
    218a:	11 c0       	rjmp	.+34     	; 0x21ae <SW_u8GetPressed+0x70>
    218c:	81 2f       	mov	r24, r17
    218e:	60 2f       	mov	r22, r16
    2190:	0e 94 64 10 	call	0x20c8	; 0x20c8 <DIO_u8GetPinValue>
    2194:	81 30       	cpi	r24, 0x01	; 1
    2196:	69 f4       	brne	.+26     	; 0x21b2 <SW_u8GetPressed+0x74>
    2198:	80 e4       	ldi	r24, 0x40	; 64
    219a:	9c e9       	ldi	r25, 0x9C	; 156
    219c:	01 97       	sbiw	r24, 0x01	; 1
    219e:	f1 f7       	brne	.-4      	; 0x219c <SW_u8GetPressed+0x5e>
    21a0:	81 2f       	mov	r24, r17
    21a2:	60 2f       	mov	r22, r16
    21a4:	0e 94 64 10 	call	0x20c8	; 0x20c8 <DIO_u8GetPinValue>
    21a8:	90 e0       	ldi	r25, 0x00	; 0
    21aa:	81 30       	cpi	r24, 0x01	; 1
    21ac:	19 f4       	brne	.+6      	; 0x21b4 <SW_u8GetPressed+0x76>
    21ae:	91 e0       	ldi	r25, 0x01	; 1
    21b0:	01 c0       	rjmp	.+2      	; 0x21b4 <SW_u8GetPressed+0x76>
    21b2:	90 e0       	ldi	r25, 0x00	; 0
    21b4:	89 2f       	mov	r24, r25
    21b6:	0f 90       	pop	r0
    21b8:	0f 90       	pop	r0
    21ba:	0f 90       	pop	r0
    21bc:	cf 91       	pop	r28
    21be:	df 91       	pop	r29
    21c0:	1f 91       	pop	r17
    21c2:	0f 91       	pop	r16
    21c4:	08 95       	ret

000021c6 <SSD_voidDisbaleB>:
    21c6:	81 e0       	ldi	r24, 0x01	; 1
    21c8:	61 e0       	ldi	r22, 0x01	; 1
    21ca:	40 e0       	ldi	r20, 0x00	; 0
    21cc:	0e 94 f6 0f 	call	0x1fec	; 0x1fec <DIO_voidSetPinValue>
    21d0:	08 95       	ret

000021d2 <SSD_voidDisbaleA>:
    21d2:	81 e0       	ldi	r24, 0x01	; 1
    21d4:	62 e0       	ldi	r22, 0x02	; 2
    21d6:	40 e0       	ldi	r20, 0x00	; 0
    21d8:	0e 94 f6 0f 	call	0x1fec	; 0x1fec <DIO_voidSetPinValue>
    21dc:	08 95       	ret

000021de <SSD_voidEnableB>:
    21de:	81 e0       	ldi	r24, 0x01	; 1
    21e0:	61 e0       	ldi	r22, 0x01	; 1
    21e2:	41 e0       	ldi	r20, 0x01	; 1
    21e4:	0e 94 f6 0f 	call	0x1fec	; 0x1fec <DIO_voidSetPinValue>
    21e8:	08 95       	ret

000021ea <SSD_voidEnableA>:
    21ea:	81 e0       	ldi	r24, 0x01	; 1
    21ec:	62 e0       	ldi	r22, 0x02	; 2
    21ee:	41 e0       	ldi	r20, 0x01	; 1
    21f0:	0e 94 f6 0f 	call	0x1fec	; 0x1fec <DIO_voidSetPinValue>
    21f4:	08 95       	ret

000021f6 <SSD_voidSendNumber>:
    21f6:	68 2f       	mov	r22, r24
    21f8:	62 95       	swap	r22
    21fa:	60 7f       	andi	r22, 0xF0	; 240
    21fc:	80 e0       	ldi	r24, 0x00	; 0
    21fe:	0e 94 65 0f 	call	0x1eca	; 0x1eca <DIO_voidSetPortValue>
    2202:	08 95       	ret

00002204 <SSD_voidSendTwoNumbers>:
    2204:	ff 92       	push	r15
    2206:	0f 93       	push	r16
    2208:	1f 93       	push	r17
    220a:	18 2f       	mov	r17, r24
    220c:	f6 2e       	mov	r15, r22
    220e:	81 e0       	ldi	r24, 0x01	; 1
    2210:	61 e0       	ldi	r22, 0x01	; 1
    2212:	40 e0       	ldi	r20, 0x00	; 0
    2214:	0e 94 f6 0f 	call	0x1fec	; 0x1fec <DIO_voidSetPinValue>
    2218:	12 95       	swap	r17
    221a:	10 7f       	andi	r17, 0xF0	; 240
    221c:	80 e0       	ldi	r24, 0x00	; 0
    221e:	61 2f       	mov	r22, r17
    2220:	0e 94 65 0f 	call	0x1eca	; 0x1eca <DIO_voidSetPortValue>
    2224:	81 e0       	ldi	r24, 0x01	; 1
    2226:	62 e0       	ldi	r22, 0x02	; 2
    2228:	41 e0       	ldi	r20, 0x01	; 1
    222a:	0e 94 f6 0f 	call	0x1fec	; 0x1fec <DIO_voidSetPinValue>
    222e:	00 e4       	ldi	r16, 0x40	; 64
    2230:	1c e9       	ldi	r17, 0x9C	; 156
    2232:	c8 01       	movw	r24, r16
    2234:	01 97       	sbiw	r24, 0x01	; 1
    2236:	f1 f7       	brne	.-4      	; 0x2234 <SSD_voidSendTwoNumbers+0x30>
    2238:	81 e0       	ldi	r24, 0x01	; 1
    223a:	62 e0       	ldi	r22, 0x02	; 2
    223c:	40 e0       	ldi	r20, 0x00	; 0
    223e:	0e 94 f6 0f 	call	0x1fec	; 0x1fec <DIO_voidSetPinValue>
    2242:	f2 94       	swap	r15
    2244:	80 ef       	ldi	r24, 0xF0	; 240
    2246:	f8 22       	and	r15, r24
    2248:	80 e0       	ldi	r24, 0x00	; 0
    224a:	6f 2d       	mov	r22, r15
    224c:	0e 94 65 0f 	call	0x1eca	; 0x1eca <DIO_voidSetPortValue>
    2250:	81 e0       	ldi	r24, 0x01	; 1
    2252:	61 e0       	ldi	r22, 0x01	; 1
    2254:	41 e0       	ldi	r20, 0x01	; 1
    2256:	0e 94 f6 0f 	call	0x1fec	; 0x1fec <DIO_voidSetPinValue>
    225a:	c8 01       	movw	r24, r16
    225c:	01 97       	sbiw	r24, 0x01	; 1
    225e:	f1 f7       	brne	.-4      	; 0x225c <SSD_voidSendTwoNumbers+0x58>
    2260:	1f 91       	pop	r17
    2262:	0f 91       	pop	r16
    2264:	ff 90       	pop	r15
    2266:	08 95       	ret

00002268 <SSD_voidInit>:
    2268:	80 e0       	ldi	r24, 0x00	; 0
    226a:	64 e0       	ldi	r22, 0x04	; 4
    226c:	41 e0       	ldi	r20, 0x01	; 1
    226e:	0e 94 88 0f 	call	0x1f10	; 0x1f10 <DIO_voidSetPinDirection>
    2272:	80 e0       	ldi	r24, 0x00	; 0
    2274:	65 e0       	ldi	r22, 0x05	; 5
    2276:	41 e0       	ldi	r20, 0x01	; 1
    2278:	0e 94 88 0f 	call	0x1f10	; 0x1f10 <DIO_voidSetPinDirection>
    227c:	80 e0       	ldi	r24, 0x00	; 0
    227e:	66 e0       	ldi	r22, 0x06	; 6
    2280:	41 e0       	ldi	r20, 0x01	; 1
    2282:	0e 94 88 0f 	call	0x1f10	; 0x1f10 <DIO_voidSetPinDirection>
    2286:	80 e0       	ldi	r24, 0x00	; 0
    2288:	67 e0       	ldi	r22, 0x07	; 7
    228a:	41 e0       	ldi	r20, 0x01	; 1
    228c:	0e 94 88 0f 	call	0x1f10	; 0x1f10 <DIO_voidSetPinDirection>
    2290:	81 e0       	ldi	r24, 0x01	; 1
    2292:	62 e0       	ldi	r22, 0x02	; 2
    2294:	41 e0       	ldi	r20, 0x01	; 1
    2296:	0e 94 88 0f 	call	0x1f10	; 0x1f10 <DIO_voidSetPinDirection>
    229a:	81 e0       	ldi	r24, 0x01	; 1
    229c:	61 e0       	ldi	r22, 0x01	; 1
    229e:	41 e0       	ldi	r20, 0x01	; 1
    22a0:	0e 94 88 0f 	call	0x1f10	; 0x1f10 <DIO_voidSetPinDirection>
    22a4:	08 95       	ret

000022a6 <LED_voidToggle>:
    22a6:	ff 92       	push	r15
    22a8:	0f 93       	push	r16
    22aa:	1f 93       	push	r17
    22ac:	df 93       	push	r29
    22ae:	cf 93       	push	r28
    22b0:	00 d0       	rcall	.+0      	; 0x22b2 <LED_voidToggle+0xc>
    22b2:	0f 92       	push	r0
    22b4:	cd b7       	in	r28, 0x3d	; 61
    22b6:	de b7       	in	r29, 0x3e	; 62
    22b8:	69 83       	std	Y+1, r22	; 0x01
    22ba:	7a 83       	std	Y+2, r23	; 0x02
    22bc:	8b 83       	std	Y+3, r24	; 0x03
    22be:	16 2f       	mov	r17, r22
    22c0:	07 2f       	mov	r16, r23
    22c2:	f8 2e       	mov	r15, r24
    22c4:	86 2f       	mov	r24, r22
    22c6:	67 2f       	mov	r22, r23
    22c8:	41 e0       	ldi	r20, 0x01	; 1
    22ca:	0e 94 88 0f 	call	0x1f10	; 0x1f10 <DIO_voidSetPinDirection>
    22ce:	40 91 b0 01 	lds	r20, 0x01B0
    22d2:	81 e0       	ldi	r24, 0x01	; 1
    22d4:	48 27       	eor	r20, r24
    22d6:	40 93 b0 01 	sts	0x01B0, r20
    22da:	f8 16       	cp	r15, r24
    22dc:	11 f0       	breq	.+4      	; 0x22e2 <LED_voidToggle+0x3c>
    22de:	ff 20       	and	r15, r15
    22e0:	21 f4       	brne	.+8      	; 0x22ea <LED_voidToggle+0x44>
    22e2:	81 2f       	mov	r24, r17
    22e4:	60 2f       	mov	r22, r16
    22e6:	0e 94 f6 0f 	call	0x1fec	; 0x1fec <DIO_voidSetPinValue>
    22ea:	0f 90       	pop	r0
    22ec:	0f 90       	pop	r0
    22ee:	0f 90       	pop	r0
    22f0:	cf 91       	pop	r28
    22f2:	df 91       	pop	r29
    22f4:	1f 91       	pop	r17
    22f6:	0f 91       	pop	r16
    22f8:	ff 90       	pop	r15
    22fa:	08 95       	ret

000022fc <LED_voidOff>:
    22fc:	df 93       	push	r29
    22fe:	cf 93       	push	r28
    2300:	00 d0       	rcall	.+0      	; 0x2302 <LED_voidOff+0x6>
    2302:	0f 92       	push	r0
    2304:	cd b7       	in	r28, 0x3d	; 61
    2306:	de b7       	in	r29, 0x3e	; 62
    2308:	26 2f       	mov	r18, r22
    230a:	69 83       	std	Y+1, r22	; 0x01
    230c:	7a 83       	std	Y+2, r23	; 0x02
    230e:	8b 83       	std	Y+3, r24	; 0x03
    2310:	67 2f       	mov	r22, r23
    2312:	81 30       	cpi	r24, 0x01	; 1
    2314:	19 f4       	brne	.+6      	; 0x231c <LED_voidOff+0x20>
    2316:	82 2f       	mov	r24, r18
    2318:	40 e0       	ldi	r20, 0x00	; 0
    231a:	04 c0       	rjmp	.+8      	; 0x2324 <LED_voidOff+0x28>
    231c:	88 23       	and	r24, r24
    231e:	21 f4       	brne	.+8      	; 0x2328 <LED_voidOff+0x2c>
    2320:	82 2f       	mov	r24, r18
    2322:	41 e0       	ldi	r20, 0x01	; 1
    2324:	0e 94 f6 0f 	call	0x1fec	; 0x1fec <DIO_voidSetPinValue>
    2328:	0f 90       	pop	r0
    232a:	0f 90       	pop	r0
    232c:	0f 90       	pop	r0
    232e:	cf 91       	pop	r28
    2330:	df 91       	pop	r29
    2332:	08 95       	ret

00002334 <LED_voidOn>:
    2334:	ff 92       	push	r15
    2336:	0f 93       	push	r16
    2338:	1f 93       	push	r17
    233a:	df 93       	push	r29
    233c:	cf 93       	push	r28
    233e:	00 d0       	rcall	.+0      	; 0x2340 <LED_voidOn+0xc>
    2340:	0f 92       	push	r0
    2342:	cd b7       	in	r28, 0x3d	; 61
    2344:	de b7       	in	r29, 0x3e	; 62
    2346:	69 83       	std	Y+1, r22	; 0x01
    2348:	7a 83       	std	Y+2, r23	; 0x02
    234a:	8b 83       	std	Y+3, r24	; 0x03
    234c:	16 2f       	mov	r17, r22
    234e:	07 2f       	mov	r16, r23
    2350:	f8 2e       	mov	r15, r24
    2352:	86 2f       	mov	r24, r22
    2354:	67 2f       	mov	r22, r23
    2356:	41 e0       	ldi	r20, 0x01	; 1
    2358:	0e 94 88 0f 	call	0x1f10	; 0x1f10 <DIO_voidSetPinDirection>
    235c:	81 e0       	ldi	r24, 0x01	; 1
    235e:	f8 16       	cp	r15, r24
    2360:	21 f4       	brne	.+8      	; 0x236a <LED_voidOn+0x36>
    2362:	81 2f       	mov	r24, r17
    2364:	60 2f       	mov	r22, r16
    2366:	41 e0       	ldi	r20, 0x01	; 1
    2368:	05 c0       	rjmp	.+10     	; 0x2374 <LED_voidOn+0x40>
    236a:	ff 20       	and	r15, r15
    236c:	29 f4       	brne	.+10     	; 0x2378 <LED_voidOn+0x44>
    236e:	81 2f       	mov	r24, r17
    2370:	60 2f       	mov	r22, r16
    2372:	40 e0       	ldi	r20, 0x00	; 0
    2374:	0e 94 f6 0f 	call	0x1fec	; 0x1fec <DIO_voidSetPinValue>
    2378:	0f 90       	pop	r0
    237a:	0f 90       	pop	r0
    237c:	0f 90       	pop	r0
    237e:	cf 91       	pop	r28
    2380:	df 91       	pop	r29
    2382:	1f 91       	pop	r17
    2384:	0f 91       	pop	r16
    2386:	ff 90       	pop	r15
    2388:	08 95       	ret

0000238a <KBD_u8GetPressed>:
    238a:	af 92       	push	r10
    238c:	bf 92       	push	r11
    238e:	df 92       	push	r13
    2390:	ef 92       	push	r14
    2392:	ff 92       	push	r15
    2394:	0f 93       	push	r16
    2396:	1f 93       	push	r17
    2398:	cf 93       	push	r28
    239a:	df 93       	push	r29
    239c:	dd 24       	eor	r13, r13
    239e:	c0 e0       	ldi	r28, 0x00	; 0
    23a0:	d0 e0       	ldi	r29, 0x00	; 0
    23a2:	20 e9       	ldi	r18, 0x90	; 144
    23a4:	a2 2e       	mov	r10, r18
    23a6:	21 e0       	ldi	r18, 0x01	; 1
    23a8:	b2 2e       	mov	r11, r18
    23aa:	94 e0       	ldi	r25, 0x04	; 4
    23ac:	e9 2e       	mov	r14, r25
    23ae:	ec 0e       	add	r14, r28
    23b0:	81 e0       	ldi	r24, 0x01	; 1
    23b2:	6e 2d       	mov	r22, r14
    23b4:	40 e0       	ldi	r20, 0x00	; 0
    23b6:	0e 94 f6 0f 	call	0x1fec	; 0x1fec <DIO_voidSetPinValue>
    23ba:	8e 01       	movw	r16, r28
    23bc:	00 5a       	subi	r16, 0xA0	; 160
    23be:	1e 4f       	sbci	r17, 0xFE	; 254
    23c0:	83 e0       	ldi	r24, 0x03	; 3
    23c2:	f8 2e       	mov	r15, r24
    23c4:	82 e0       	ldi	r24, 0x02	; 2
    23c6:	6f 2d       	mov	r22, r15
    23c8:	0e 94 64 10 	call	0x20c8	; 0x20c8 <DIO_u8GetPinValue>
    23cc:	88 23       	and	r24, r24
    23ce:	a9 f4       	brne	.+42     	; 0x23fa <KBD_u8GetPressed+0x70>
    23d0:	84 ef       	ldi	r24, 0xF4	; 244
    23d2:	91 e0       	ldi	r25, 0x01	; 1
    23d4:	f5 01       	movw	r30, r10
    23d6:	31 97       	sbiw	r30, 0x01	; 1
    23d8:	f1 f7       	brne	.-4      	; 0x23d6 <KBD_u8GetPressed+0x4c>
    23da:	01 97       	sbiw	r24, 0x01	; 1
    23dc:	d9 f7       	brne	.-10     	; 0x23d4 <KBD_u8GetPressed+0x4a>
    23de:	82 e0       	ldi	r24, 0x02	; 2
    23e0:	6f 2d       	mov	r22, r15
    23e2:	0e 94 64 10 	call	0x20c8	; 0x20c8 <DIO_u8GetPinValue>
    23e6:	88 23       	and	r24, r24
    23e8:	41 f4       	brne	.+16     	; 0x23fa <KBD_u8GetPressed+0x70>
    23ea:	f8 01       	movw	r30, r16
    23ec:	d0 80       	ld	r13, Z
    23ee:	82 e0       	ldi	r24, 0x02	; 2
    23f0:	6f 2d       	mov	r22, r15
    23f2:	0e 94 64 10 	call	0x20c8	; 0x20c8 <DIO_u8GetPinValue>
    23f6:	88 23       	and	r24, r24
    23f8:	d1 f3       	breq	.-12     	; 0x23ee <KBD_u8GetPressed+0x64>
    23fa:	f3 94       	inc	r15
    23fc:	0c 5f       	subi	r16, 0xFC	; 252
    23fe:	1f 4f       	sbci	r17, 0xFF	; 255
    2400:	f7 e0       	ldi	r31, 0x07	; 7
    2402:	ff 16       	cp	r15, r31
    2404:	f9 f6       	brne	.-66     	; 0x23c4 <KBD_u8GetPressed+0x3a>
    2406:	81 e0       	ldi	r24, 0x01	; 1
    2408:	6e 2d       	mov	r22, r14
    240a:	41 e0       	ldi	r20, 0x01	; 1
    240c:	0e 94 f6 0f 	call	0x1fec	; 0x1fec <DIO_voidSetPinValue>
    2410:	21 96       	adiw	r28, 0x01	; 1
    2412:	c4 30       	cpi	r28, 0x04	; 4
    2414:	d1 05       	cpc	r29, r1
    2416:	49 f6       	brne	.-110    	; 0x23aa <KBD_u8GetPressed+0x20>
    2418:	8d 2d       	mov	r24, r13
    241a:	df 91       	pop	r29
    241c:	cf 91       	pop	r28
    241e:	1f 91       	pop	r17
    2420:	0f 91       	pop	r16
    2422:	ff 90       	pop	r15
    2424:	ef 90       	pop	r14
    2426:	df 90       	pop	r13
    2428:	bf 90       	pop	r11
    242a:	af 90       	pop	r10
    242c:	08 95       	ret

0000242e <KBD_voidInit>:
    242e:	82 e0       	ldi	r24, 0x02	; 2
    2430:	63 e0       	ldi	r22, 0x03	; 3
    2432:	40 e0       	ldi	r20, 0x00	; 0
    2434:	0e 94 88 0f 	call	0x1f10	; 0x1f10 <DIO_voidSetPinDirection>
    2438:	82 e0       	ldi	r24, 0x02	; 2
    243a:	64 e0       	ldi	r22, 0x04	; 4
    243c:	40 e0       	ldi	r20, 0x00	; 0
    243e:	0e 94 88 0f 	call	0x1f10	; 0x1f10 <DIO_voidSetPinDirection>
    2442:	82 e0       	ldi	r24, 0x02	; 2
    2444:	65 e0       	ldi	r22, 0x05	; 5
    2446:	40 e0       	ldi	r20, 0x00	; 0
    2448:	0e 94 88 0f 	call	0x1f10	; 0x1f10 <DIO_voidSetPinDirection>
    244c:	82 e0       	ldi	r24, 0x02	; 2
    244e:	66 e0       	ldi	r22, 0x06	; 6
    2450:	40 e0       	ldi	r20, 0x00	; 0
    2452:	0e 94 88 0f 	call	0x1f10	; 0x1f10 <DIO_voidSetPinDirection>
    2456:	82 e0       	ldi	r24, 0x02	; 2
    2458:	63 e0       	ldi	r22, 0x03	; 3
    245a:	41 e0       	ldi	r20, 0x01	; 1
    245c:	0e 94 f6 0f 	call	0x1fec	; 0x1fec <DIO_voidSetPinValue>
    2460:	82 e0       	ldi	r24, 0x02	; 2
    2462:	64 e0       	ldi	r22, 0x04	; 4
    2464:	41 e0       	ldi	r20, 0x01	; 1
    2466:	0e 94 f6 0f 	call	0x1fec	; 0x1fec <DIO_voidSetPinValue>
    246a:	82 e0       	ldi	r24, 0x02	; 2
    246c:	65 e0       	ldi	r22, 0x05	; 5
    246e:	41 e0       	ldi	r20, 0x01	; 1
    2470:	0e 94 f6 0f 	call	0x1fec	; 0x1fec <DIO_voidSetPinValue>
    2474:	82 e0       	ldi	r24, 0x02	; 2
    2476:	66 e0       	ldi	r22, 0x06	; 6
    2478:	41 e0       	ldi	r20, 0x01	; 1
    247a:	0e 94 f6 0f 	call	0x1fec	; 0x1fec <DIO_voidSetPinValue>
    247e:	81 e0       	ldi	r24, 0x01	; 1
    2480:	64 e0       	ldi	r22, 0x04	; 4
    2482:	41 e0       	ldi	r20, 0x01	; 1
    2484:	0e 94 88 0f 	call	0x1f10	; 0x1f10 <DIO_voidSetPinDirection>
    2488:	81 e0       	ldi	r24, 0x01	; 1
    248a:	65 e0       	ldi	r22, 0x05	; 5
    248c:	41 e0       	ldi	r20, 0x01	; 1
    248e:	0e 94 88 0f 	call	0x1f10	; 0x1f10 <DIO_voidSetPinDirection>
    2492:	81 e0       	ldi	r24, 0x01	; 1
    2494:	66 e0       	ldi	r22, 0x06	; 6
    2496:	41 e0       	ldi	r20, 0x01	; 1
    2498:	0e 94 88 0f 	call	0x1f10	; 0x1f10 <DIO_voidSetPinDirection>
    249c:	81 e0       	ldi	r24, 0x01	; 1
    249e:	67 e0       	ldi	r22, 0x07	; 7
    24a0:	41 e0       	ldi	r20, 0x01	; 1
    24a2:	0e 94 88 0f 	call	0x1f10	; 0x1f10 <DIO_voidSetPinDirection>
    24a6:	81 e0       	ldi	r24, 0x01	; 1
    24a8:	64 e0       	ldi	r22, 0x04	; 4
    24aa:	41 e0       	ldi	r20, 0x01	; 1
    24ac:	0e 94 f6 0f 	call	0x1fec	; 0x1fec <DIO_voidSetPinValue>
    24b0:	81 e0       	ldi	r24, 0x01	; 1
    24b2:	65 e0       	ldi	r22, 0x05	; 5
    24b4:	41 e0       	ldi	r20, 0x01	; 1
    24b6:	0e 94 f6 0f 	call	0x1fec	; 0x1fec <DIO_voidSetPinValue>
    24ba:	81 e0       	ldi	r24, 0x01	; 1
    24bc:	66 e0       	ldi	r22, 0x06	; 6
    24be:	41 e0       	ldi	r20, 0x01	; 1
    24c0:	0e 94 f6 0f 	call	0x1fec	; 0x1fec <DIO_voidSetPinValue>
    24c4:	81 e0       	ldi	r24, 0x01	; 1
    24c6:	67 e0       	ldi	r22, 0x07	; 7
    24c8:	41 e0       	ldi	r20, 0x01	; 1
    24ca:	0e 94 f6 0f 	call	0x1fec	; 0x1fec <DIO_voidSetPinValue>
    24ce:	08 95       	ret

000024d0 <CLCD_voidWriteData>:
    24d0:	ef 92       	push	r14
    24d2:	ff 92       	push	r15
    24d4:	1f 93       	push	r17
    24d6:	18 2f       	mov	r17, r24
    24d8:	81 e0       	ldi	r24, 0x01	; 1
    24da:	61 e0       	ldi	r22, 0x01	; 1
    24dc:	41 e0       	ldi	r20, 0x01	; 1
    24de:	0e 94 f6 0f 	call	0x1fec	; 0x1fec <DIO_voidSetPinValue>
    24e2:	81 e0       	ldi	r24, 0x01	; 1
    24e4:	62 e0       	ldi	r22, 0x02	; 2
    24e6:	40 e0       	ldi	r20, 0x00	; 0
    24e8:	0e 94 f6 0f 	call	0x1fec	; 0x1fec <DIO_voidSetPinValue>
    24ec:	61 2f       	mov	r22, r17
    24ee:	60 7f       	andi	r22, 0xF0	; 240
    24f0:	80 e0       	ldi	r24, 0x00	; 0
    24f2:	0e 94 65 0f 	call	0x1eca	; 0x1eca <DIO_voidSetPortValue>
    24f6:	81 e0       	ldi	r24, 0x01	; 1
    24f8:	63 e0       	ldi	r22, 0x03	; 3
    24fa:	41 e0       	ldi	r20, 0x01	; 1
    24fc:	0e 94 f6 0f 	call	0x1fec	; 0x1fec <DIO_voidSetPinValue>
    2500:	80 ea       	ldi	r24, 0xA0	; 160
    2502:	e8 2e       	mov	r14, r24
    2504:	8f e0       	ldi	r24, 0x0F	; 15
    2506:	f8 2e       	mov	r15, r24
    2508:	c7 01       	movw	r24, r14
    250a:	01 97       	sbiw	r24, 0x01	; 1
    250c:	f1 f7       	brne	.-4      	; 0x250a <CLCD_voidWriteData+0x3a>
    250e:	81 e0       	ldi	r24, 0x01	; 1
    2510:	63 e0       	ldi	r22, 0x03	; 3
    2512:	40 e0       	ldi	r20, 0x00	; 0
    2514:	0e 94 f6 0f 	call	0x1fec	; 0x1fec <DIO_voidSetPinValue>
    2518:	c7 01       	movw	r24, r14
    251a:	01 97       	sbiw	r24, 0x01	; 1
    251c:	f1 f7       	brne	.-4      	; 0x251a <CLCD_voidWriteData+0x4a>
    251e:	12 95       	swap	r17
    2520:	10 7f       	andi	r17, 0xF0	; 240
    2522:	80 e0       	ldi	r24, 0x00	; 0
    2524:	61 2f       	mov	r22, r17
    2526:	0e 94 65 0f 	call	0x1eca	; 0x1eca <DIO_voidSetPortValue>
    252a:	81 e0       	ldi	r24, 0x01	; 1
    252c:	63 e0       	ldi	r22, 0x03	; 3
    252e:	41 e0       	ldi	r20, 0x01	; 1
    2530:	0e 94 f6 0f 	call	0x1fec	; 0x1fec <DIO_voidSetPinValue>
    2534:	c7 01       	movw	r24, r14
    2536:	01 97       	sbiw	r24, 0x01	; 1
    2538:	f1 f7       	brne	.-4      	; 0x2536 <CLCD_voidWriteData+0x66>
    253a:	81 e0       	ldi	r24, 0x01	; 1
    253c:	63 e0       	ldi	r22, 0x03	; 3
    253e:	40 e0       	ldi	r20, 0x00	; 0
    2540:	0e 94 f6 0f 	call	0x1fec	; 0x1fec <DIO_voidSetPinValue>
    2544:	c7 01       	movw	r24, r14
    2546:	01 97       	sbiw	r24, 0x01	; 1
    2548:	f1 f7       	brne	.-4      	; 0x2546 <CLCD_voidWriteData+0x76>
    254a:	1f 91       	pop	r17
    254c:	ff 90       	pop	r15
    254e:	ef 90       	pop	r14
    2550:	08 95       	ret

00002552 <CLCD_voidWriteNumber>:
    2552:	2f 92       	push	r2
    2554:	3f 92       	push	r3
    2556:	4f 92       	push	r4
    2558:	5f 92       	push	r5
    255a:	6f 92       	push	r6
    255c:	7f 92       	push	r7
    255e:	8f 92       	push	r8
    2560:	9f 92       	push	r9
    2562:	af 92       	push	r10
    2564:	bf 92       	push	r11
    2566:	cf 92       	push	r12
    2568:	df 92       	push	r13
    256a:	ef 92       	push	r14
    256c:	ff 92       	push	r15
    256e:	0f 93       	push	r16
    2570:	1f 93       	push	r17
    2572:	df 93       	push	r29
    2574:	cf 93       	push	r28
    2576:	cd b7       	in	r28, 0x3d	; 61
    2578:	de b7       	in	r29, 0x3e	; 62
    257a:	29 97       	sbiw	r28, 0x09	; 9
    257c:	0f b6       	in	r0, 0x3f	; 63
    257e:	f8 94       	cli
    2580:	de bf       	out	0x3e, r29	; 62
    2582:	0f be       	out	0x3f, r0	; 63
    2584:	cd bf       	out	0x3d, r28	; 61
    2586:	2a 83       	std	Y+2, r18	; 0x02
    2588:	3b 83       	std	Y+3, r19	; 0x03
    258a:	4c 83       	std	Y+4, r20	; 0x04
    258c:	5d 83       	std	Y+5, r21	; 0x05
    258e:	6e 83       	std	Y+6, r22	; 0x06
    2590:	7f 83       	std	Y+7, r23	; 0x07
    2592:	88 87       	std	Y+8, r24	; 0x08
    2594:	99 87       	std	Y+9, r25	; 0x09
    2596:	82 2f       	mov	r24, r18
    2598:	83 2b       	or	r24, r19
    259a:	84 2b       	or	r24, r20
    259c:	85 2b       	or	r24, r21
    259e:	86 2b       	or	r24, r22
    25a0:	87 2b       	or	r24, r23
    25a2:	98 85       	ldd	r25, Y+8	; 0x08
    25a4:	89 2b       	or	r24, r25
    25a6:	e9 85       	ldd	r30, Y+9	; 0x09
    25a8:	8e 2b       	or	r24, r30
    25aa:	19 f4       	brne	.+6      	; 0x25b2 <CLCD_voidWriteNumber+0x60>
    25ac:	80 e3       	ldi	r24, 0x30	; 48
    25ae:	0e 94 68 12 	call	0x24d0	; 0x24d0 <CLCD_voidWriteData>
    25b2:	22 24       	eor	r2, r2
    25b4:	23 94       	inc	r2
    25b6:	33 24       	eor	r3, r3
    25b8:	44 24       	eor	r4, r4
    25ba:	55 24       	eor	r5, r5
    25bc:	66 24       	eor	r6, r6
    25be:	77 24       	eor	r7, r7
    25c0:	88 24       	eor	r8, r8
    25c2:	99 24       	eor	r9, r9
    25c4:	ef c0       	rjmp	.+478    	; 0x27a4 <CLCD_voidWriteNumber+0x252>
    25c6:	91 01       	movw	r18, r2
    25c8:	a2 01       	movw	r20, r4
    25ca:	b3 01       	movw	r22, r6
    25cc:	c4 01       	movw	r24, r8
    25ce:	01 e0       	ldi	r16, 0x01	; 1
    25d0:	0e 94 49 00 	call	0x92	; 0x92 <__ashldi3>
    25d4:	12 2f       	mov	r17, r18
    25d6:	f3 2e       	mov	r15, r19
    25d8:	e4 2e       	mov	r14, r20
    25da:	d5 2e       	mov	r13, r21
    25dc:	c6 2e       	mov	r12, r22
    25de:	b7 2e       	mov	r11, r23
    25e0:	a8 2e       	mov	r10, r24
    25e2:	89 2e       	mov	r8, r25
    25e4:	02 e0       	ldi	r16, 0x02	; 2
    25e6:	0e 94 49 00 	call	0x92	; 0x92 <__ashldi3>
    25ea:	92 2e       	mov	r9, r18
    25ec:	91 0e       	add	r9, r17
    25ee:	21 e0       	ldi	r18, 0x01	; 1
    25f0:	91 16       	cp	r9, r17
    25f2:	08 f0       	brcs	.+2      	; 0x25f6 <CLCD_voidWriteNumber+0xa4>
    25f4:	20 e0       	ldi	r18, 0x00	; 0
    25f6:	3f 0d       	add	r19, r15
    25f8:	e1 e0       	ldi	r30, 0x01	; 1
    25fa:	3f 15       	cp	r19, r15
    25fc:	08 f0       	brcs	.+2      	; 0x2600 <CLCD_voidWriteNumber+0xae>
    25fe:	e0 e0       	ldi	r30, 0x00	; 0
    2600:	72 2e       	mov	r7, r18
    2602:	73 0e       	add	r7, r19
    2604:	21 e0       	ldi	r18, 0x01	; 1
    2606:	73 16       	cp	r7, r19
    2608:	08 f0       	brcs	.+2      	; 0x260c <CLCD_voidWriteNumber+0xba>
    260a:	20 e0       	ldi	r18, 0x00	; 0
    260c:	e2 2b       	or	r30, r18
    260e:	4e 0d       	add	r20, r14
    2610:	31 e0       	ldi	r19, 0x01	; 1
    2612:	4e 15       	cp	r20, r14
    2614:	08 f0       	brcs	.+2      	; 0x2618 <CLCD_voidWriteNumber+0xc6>
    2616:	30 e0       	ldi	r19, 0x00	; 0
    2618:	6e 2e       	mov	r6, r30
    261a:	64 0e       	add	r6, r20
    261c:	21 e0       	ldi	r18, 0x01	; 1
    261e:	64 16       	cp	r6, r20
    2620:	08 f0       	brcs	.+2      	; 0x2624 <CLCD_voidWriteNumber+0xd2>
    2622:	20 e0       	ldi	r18, 0x00	; 0
    2624:	32 2b       	or	r19, r18
    2626:	5d 0d       	add	r21, r13
    2628:	41 e0       	ldi	r20, 0x01	; 1
    262a:	5d 15       	cp	r21, r13
    262c:	08 f0       	brcs	.+2      	; 0x2630 <CLCD_voidWriteNumber+0xde>
    262e:	40 e0       	ldi	r20, 0x00	; 0
    2630:	53 2e       	mov	r5, r19
    2632:	55 0e       	add	r5, r21
    2634:	21 e0       	ldi	r18, 0x01	; 1
    2636:	55 16       	cp	r5, r21
    2638:	08 f0       	brcs	.+2      	; 0x263c <CLCD_voidWriteNumber+0xea>
    263a:	20 e0       	ldi	r18, 0x00	; 0
    263c:	42 2b       	or	r20, r18
    263e:	6c 0d       	add	r22, r12
    2640:	31 e0       	ldi	r19, 0x01	; 1
    2642:	6c 15       	cp	r22, r12
    2644:	08 f0       	brcs	.+2      	; 0x2648 <CLCD_voidWriteNumber+0xf6>
    2646:	30 e0       	ldi	r19, 0x00	; 0
    2648:	44 2e       	mov	r4, r20
    264a:	46 0e       	add	r4, r22
    264c:	21 e0       	ldi	r18, 0x01	; 1
    264e:	46 16       	cp	r4, r22
    2650:	08 f0       	brcs	.+2      	; 0x2654 <CLCD_voidWriteNumber+0x102>
    2652:	20 e0       	ldi	r18, 0x00	; 0
    2654:	32 2b       	or	r19, r18
    2656:	7b 0d       	add	r23, r11
    2658:	41 e0       	ldi	r20, 0x01	; 1
    265a:	7b 15       	cp	r23, r11
    265c:	08 f0       	brcs	.+2      	; 0x2660 <CLCD_voidWriteNumber+0x10e>
    265e:	40 e0       	ldi	r20, 0x00	; 0
    2660:	33 2e       	mov	r3, r19
    2662:	37 0e       	add	r3, r23
    2664:	21 e0       	ldi	r18, 0x01	; 1
    2666:	37 16       	cp	r3, r23
    2668:	08 f0       	brcs	.+2      	; 0x266c <CLCD_voidWriteNumber+0x11a>
    266a:	20 e0       	ldi	r18, 0x00	; 0
    266c:	42 2b       	or	r20, r18
    266e:	8a 0d       	add	r24, r10
    2670:	31 e0       	ldi	r19, 0x01	; 1
    2672:	8a 15       	cp	r24, r10
    2674:	08 f0       	brcs	.+2      	; 0x2678 <CLCD_voidWriteNumber+0x126>
    2676:	30 e0       	ldi	r19, 0x00	; 0
    2678:	24 2e       	mov	r2, r20
    267a:	28 0e       	add	r2, r24
    267c:	21 e0       	ldi	r18, 0x01	; 1
    267e:	28 16       	cp	r2, r24
    2680:	08 f0       	brcs	.+2      	; 0x2684 <CLCD_voidWriteNumber+0x132>
    2682:	20 e0       	ldi	r18, 0x00	; 0
    2684:	32 2b       	or	r19, r18
    2686:	98 0d       	add	r25, r8
    2688:	f3 2f       	mov	r31, r19
    268a:	f9 0f       	add	r31, r25
    268c:	f9 83       	std	Y+1, r31	; 0x01
    268e:	2a 81       	ldd	r18, Y+2	; 0x02
    2690:	3b 81       	ldd	r19, Y+3	; 0x03
    2692:	4c 81       	ldd	r20, Y+4	; 0x04
    2694:	5d 81       	ldd	r21, Y+5	; 0x05
    2696:	6e 81       	ldd	r22, Y+6	; 0x06
    2698:	7f 81       	ldd	r23, Y+7	; 0x07
    269a:	88 85       	ldd	r24, Y+8	; 0x08
    269c:	99 85       	ldd	r25, Y+9	; 0x09
    269e:	aa e0       	ldi	r26, 0x0A	; 10
    26a0:	aa 2e       	mov	r10, r26
    26a2:	bb 24       	eor	r11, r11
    26a4:	cc 24       	eor	r12, r12
    26a6:	dd 24       	eor	r13, r13
    26a8:	ee 24       	eor	r14, r14
    26aa:	ff 24       	eor	r15, r15
    26ac:	00 e0       	ldi	r16, 0x00	; 0
    26ae:	10 e0       	ldi	r17, 0x00	; 0
    26b0:	0e 94 3d 07 	call	0xe7a	; 0xe7a <__umoddi3>
    26b4:	12 2f       	mov	r17, r18
    26b6:	19 0d       	add	r17, r9
    26b8:	f1 e0       	ldi	r31, 0x01	; 1
    26ba:	12 17       	cp	r17, r18
    26bc:	08 f0       	brcs	.+2      	; 0x26c0 <CLCD_voidWriteNumber+0x16e>
    26be:	f0 e0       	ldi	r31, 0x00	; 0
    26c0:	23 2f       	mov	r18, r19
    26c2:	27 0d       	add	r18, r7
    26c4:	e1 e0       	ldi	r30, 0x01	; 1
    26c6:	23 17       	cp	r18, r19
    26c8:	08 f0       	brcs	.+2      	; 0x26cc <CLCD_voidWriteNumber+0x17a>
    26ca:	e0 e0       	ldi	r30, 0x00	; 0
    26cc:	bf 2f       	mov	r27, r31
    26ce:	b2 0f       	add	r27, r18
    26d0:	31 e0       	ldi	r19, 0x01	; 1
    26d2:	b2 17       	cp	r27, r18
    26d4:	08 f0       	brcs	.+2      	; 0x26d8 <CLCD_voidWriteNumber+0x186>
    26d6:	30 e0       	ldi	r19, 0x00	; 0
    26d8:	e3 2b       	or	r30, r19
    26da:	24 2f       	mov	r18, r20
    26dc:	26 0d       	add	r18, r6
    26de:	f1 e0       	ldi	r31, 0x01	; 1
    26e0:	24 17       	cp	r18, r20
    26e2:	08 f0       	brcs	.+2      	; 0x26e6 <CLCD_voidWriteNumber+0x194>
    26e4:	f0 e0       	ldi	r31, 0x00	; 0
    26e6:	ae 2f       	mov	r26, r30
    26e8:	a2 0f       	add	r26, r18
    26ea:	31 e0       	ldi	r19, 0x01	; 1
    26ec:	a2 17       	cp	r26, r18
    26ee:	08 f0       	brcs	.+2      	; 0x26f2 <CLCD_voidWriteNumber+0x1a0>
    26f0:	30 e0       	ldi	r19, 0x00	; 0
    26f2:	f3 2b       	or	r31, r19
    26f4:	25 2f       	mov	r18, r21
    26f6:	25 0d       	add	r18, r5
    26f8:	41 e0       	ldi	r20, 0x01	; 1
    26fa:	25 17       	cp	r18, r21
    26fc:	08 f0       	brcs	.+2      	; 0x2700 <CLCD_voidWriteNumber+0x1ae>
    26fe:	40 e0       	ldi	r20, 0x00	; 0
    2700:	0f 2f       	mov	r16, r31
    2702:	02 0f       	add	r16, r18
    2704:	31 e0       	ldi	r19, 0x01	; 1
    2706:	02 17       	cp	r16, r18
    2708:	08 f0       	brcs	.+2      	; 0x270c <CLCD_voidWriteNumber+0x1ba>
    270a:	30 e0       	ldi	r19, 0x00	; 0
    270c:	43 2b       	or	r20, r19
    270e:	26 2f       	mov	r18, r22
    2710:	24 0d       	add	r18, r4
    2712:	51 e0       	ldi	r21, 0x01	; 1
    2714:	26 17       	cp	r18, r22
    2716:	08 f0       	brcs	.+2      	; 0x271a <CLCD_voidWriteNumber+0x1c8>
    2718:	50 e0       	ldi	r21, 0x00	; 0
    271a:	64 2f       	mov	r22, r20
    271c:	62 0f       	add	r22, r18
    271e:	31 e0       	ldi	r19, 0x01	; 1
    2720:	62 17       	cp	r22, r18
    2722:	08 f0       	brcs	.+2      	; 0x2726 <CLCD_voidWriteNumber+0x1d4>
    2724:	30 e0       	ldi	r19, 0x00	; 0
    2726:	53 2b       	or	r21, r19
    2728:	27 2f       	mov	r18, r23
    272a:	23 0d       	add	r18, r3
    272c:	41 e0       	ldi	r20, 0x01	; 1
    272e:	27 17       	cp	r18, r23
    2730:	08 f0       	brcs	.+2      	; 0x2734 <CLCD_voidWriteNumber+0x1e2>
    2732:	40 e0       	ldi	r20, 0x00	; 0
    2734:	52 0f       	add	r21, r18
    2736:	31 e0       	ldi	r19, 0x01	; 1
    2738:	52 17       	cp	r21, r18
    273a:	08 f0       	brcs	.+2      	; 0x273e <CLCD_voidWriteNumber+0x1ec>
    273c:	30 e0       	ldi	r19, 0x00	; 0
    273e:	43 2b       	or	r20, r19
    2740:	28 2f       	mov	r18, r24
    2742:	22 0d       	add	r18, r2
    2744:	31 e0       	ldi	r19, 0x01	; 1
    2746:	28 17       	cp	r18, r24
    2748:	08 f0       	brcs	.+2      	; 0x274c <CLCD_voidWriteNumber+0x1fa>
    274a:	30 e0       	ldi	r19, 0x00	; 0
    274c:	42 0f       	add	r20, r18
    274e:	81 e0       	ldi	r24, 0x01	; 1
    2750:	42 17       	cp	r20, r18
    2752:	08 f0       	brcs	.+2      	; 0x2756 <CLCD_voidWriteNumber+0x204>
    2754:	80 e0       	ldi	r24, 0x00	; 0
    2756:	38 2b       	or	r19, r24
    2758:	89 81       	ldd	r24, Y+1	; 0x01
    275a:	89 0f       	add	r24, r25
    275c:	21 2e       	mov	r2, r17
    275e:	3b 2e       	mov	r3, r27
    2760:	4a 2e       	mov	r4, r26
    2762:	50 2e       	mov	r5, r16
    2764:	66 2e       	mov	r6, r22
    2766:	75 2e       	mov	r7, r21
    2768:	84 2e       	mov	r8, r20
    276a:	98 2e       	mov	r9, r24
    276c:	93 0e       	add	r9, r19
    276e:	2a 81       	ldd	r18, Y+2	; 0x02
    2770:	3b 81       	ldd	r19, Y+3	; 0x03
    2772:	4c 81       	ldd	r20, Y+4	; 0x04
    2774:	5d 81       	ldd	r21, Y+5	; 0x05
    2776:	6e 81       	ldd	r22, Y+6	; 0x06
    2778:	7f 81       	ldd	r23, Y+7	; 0x07
    277a:	88 85       	ldd	r24, Y+8	; 0x08
    277c:	99 85       	ldd	r25, Y+9	; 0x09
    277e:	fa e0       	ldi	r31, 0x0A	; 10
    2780:	af 2e       	mov	r10, r31
    2782:	bb 24       	eor	r11, r11
    2784:	cc 24       	eor	r12, r12
    2786:	dd 24       	eor	r13, r13
    2788:	ee 24       	eor	r14, r14
    278a:	ff 24       	eor	r15, r15
    278c:	00 e0       	ldi	r16, 0x00	; 0
    278e:	10 e0       	ldi	r17, 0x00	; 0
    2790:	0e 94 c8 00 	call	0x190	; 0x190 <__udivdi3>
    2794:	2a 83       	std	Y+2, r18	; 0x02
    2796:	3b 83       	std	Y+3, r19	; 0x03
    2798:	4c 83       	std	Y+4, r20	; 0x04
    279a:	5d 83       	std	Y+5, r21	; 0x05
    279c:	6e 83       	std	Y+6, r22	; 0x06
    279e:	7f 83       	std	Y+7, r23	; 0x07
    27a0:	88 87       	std	Y+8, r24	; 0x08
    27a2:	99 87       	std	Y+9, r25	; 0x09
    27a4:	8a 81       	ldd	r24, Y+2	; 0x02
    27a6:	9b 81       	ldd	r25, Y+3	; 0x03
    27a8:	89 2b       	or	r24, r25
    27aa:	ec 81       	ldd	r30, Y+4	; 0x04
    27ac:	8e 2b       	or	r24, r30
    27ae:	fd 81       	ldd	r31, Y+5	; 0x05
    27b0:	8f 2b       	or	r24, r31
    27b2:	9e 81       	ldd	r25, Y+6	; 0x06
    27b4:	89 2b       	or	r24, r25
    27b6:	ef 81       	ldd	r30, Y+7	; 0x07
    27b8:	8e 2b       	or	r24, r30
    27ba:	f8 85       	ldd	r31, Y+8	; 0x08
    27bc:	8f 2b       	or	r24, r31
    27be:	99 85       	ldd	r25, Y+9	; 0x09
    27c0:	89 2b       	or	r24, r25
    27c2:	09 f0       	breq	.+2      	; 0x27c6 <CLCD_voidWriteNumber+0x274>
    27c4:	00 cf       	rjmp	.-512    	; 0x25c6 <CLCD_voidWriteNumber+0x74>
    27c6:	1d c0       	rjmp	.+58     	; 0x2802 <CLCD_voidWriteNumber+0x2b0>
    27c8:	91 01       	movw	r18, r2
    27ca:	a2 01       	movw	r20, r4
    27cc:	b3 01       	movw	r22, r6
    27ce:	c4 01       	movw	r24, r8
    27d0:	ea e0       	ldi	r30, 0x0A	; 10
    27d2:	ae 2e       	mov	r10, r30
    27d4:	bb 24       	eor	r11, r11
    27d6:	cc 24       	eor	r12, r12
    27d8:	dd 24       	eor	r13, r13
    27da:	ee 24       	eor	r14, r14
    27dc:	ff 24       	eor	r15, r15
    27de:	00 e0       	ldi	r16, 0x00	; 0
    27e0:	10 e0       	ldi	r17, 0x00	; 0
    27e2:	0e 94 3d 07 	call	0xe7a	; 0xe7a <__umoddi3>
    27e6:	82 2f       	mov	r24, r18
    27e8:	80 5d       	subi	r24, 0xD0	; 208
    27ea:	0e 94 68 12 	call	0x24d0	; 0x24d0 <CLCD_voidWriteData>
    27ee:	91 01       	movw	r18, r2
    27f0:	a2 01       	movw	r20, r4
    27f2:	b3 01       	movw	r22, r6
    27f4:	c4 01       	movw	r24, r8
    27f6:	0e 94 c8 00 	call	0x190	; 0x190 <__udivdi3>
    27fa:	19 01       	movw	r2, r18
    27fc:	2a 01       	movw	r4, r20
    27fe:	3b 01       	movw	r6, r22
    2800:	4c 01       	movw	r8, r24
    2802:	e1 e0       	ldi	r30, 0x01	; 1
    2804:	2e 16       	cp	r2, r30
    2806:	01 f7       	brne	.-64     	; 0x27c8 <CLCD_voidWriteNumber+0x276>
    2808:	33 20       	and	r3, r3
    280a:	f1 f6       	brne	.-68     	; 0x27c8 <CLCD_voidWriteNumber+0x276>
    280c:	44 20       	and	r4, r4
    280e:	e1 f6       	brne	.-72     	; 0x27c8 <CLCD_voidWriteNumber+0x276>
    2810:	55 20       	and	r5, r5
    2812:	d1 f6       	brne	.-76     	; 0x27c8 <CLCD_voidWriteNumber+0x276>
    2814:	66 20       	and	r6, r6
    2816:	c1 f6       	brne	.-80     	; 0x27c8 <CLCD_voidWriteNumber+0x276>
    2818:	77 20       	and	r7, r7
    281a:	b1 f6       	brne	.-84     	; 0x27c8 <CLCD_voidWriteNumber+0x276>
    281c:	88 20       	and	r8, r8
    281e:	a1 f6       	brne	.-88     	; 0x27c8 <CLCD_voidWriteNumber+0x276>
    2820:	99 20       	and	r9, r9
    2822:	91 f6       	brne	.-92     	; 0x27c8 <CLCD_voidWriteNumber+0x276>
    2824:	29 96       	adiw	r28, 0x09	; 9
    2826:	0f b6       	in	r0, 0x3f	; 63
    2828:	f8 94       	cli
    282a:	de bf       	out	0x3e, r29	; 62
    282c:	0f be       	out	0x3f, r0	; 63
    282e:	cd bf       	out	0x3d, r28	; 61
    2830:	cf 91       	pop	r28
    2832:	df 91       	pop	r29
    2834:	1f 91       	pop	r17
    2836:	0f 91       	pop	r16
    2838:	ff 90       	pop	r15
    283a:	ef 90       	pop	r14
    283c:	df 90       	pop	r13
    283e:	cf 90       	pop	r12
    2840:	bf 90       	pop	r11
    2842:	af 90       	pop	r10
    2844:	9f 90       	pop	r9
    2846:	8f 90       	pop	r8
    2848:	7f 90       	pop	r7
    284a:	6f 90       	pop	r6
    284c:	5f 90       	pop	r5
    284e:	4f 90       	pop	r4
    2850:	3f 90       	pop	r3
    2852:	2f 90       	pop	r2
    2854:	08 95       	ret

00002856 <CLCD_voidWriteString>:
    2856:	1f 93       	push	r17
    2858:	cf 93       	push	r28
    285a:	df 93       	push	r29
    285c:	ec 01       	movw	r28, r24
    285e:	10 e0       	ldi	r17, 0x00	; 0
    2860:	03 c0       	rjmp	.+6      	; 0x2868 <CLCD_voidWriteString+0x12>
    2862:	0e 94 68 12 	call	0x24d0	; 0x24d0 <CLCD_voidWriteData>
    2866:	1f 5f       	subi	r17, 0xFF	; 255
    2868:	fe 01       	movw	r30, r28
    286a:	e1 0f       	add	r30, r17
    286c:	f1 1d       	adc	r31, r1
    286e:	80 81       	ld	r24, Z
    2870:	88 23       	and	r24, r24
    2872:	b9 f7       	brne	.-18     	; 0x2862 <CLCD_voidWriteString+0xc>
    2874:	df 91       	pop	r29
    2876:	cf 91       	pop	r28
    2878:	1f 91       	pop	r17
    287a:	08 95       	ret

0000287c <CLCD_voidWriteCommend>:
    287c:	ef 92       	push	r14
    287e:	ff 92       	push	r15
    2880:	1f 93       	push	r17
    2882:	18 2f       	mov	r17, r24
    2884:	81 e0       	ldi	r24, 0x01	; 1
    2886:	61 e0       	ldi	r22, 0x01	; 1
    2888:	40 e0       	ldi	r20, 0x00	; 0
    288a:	0e 94 f6 0f 	call	0x1fec	; 0x1fec <DIO_voidSetPinValue>
    288e:	81 e0       	ldi	r24, 0x01	; 1
    2890:	62 e0       	ldi	r22, 0x02	; 2
    2892:	40 e0       	ldi	r20, 0x00	; 0
    2894:	0e 94 f6 0f 	call	0x1fec	; 0x1fec <DIO_voidSetPinValue>
    2898:	61 2f       	mov	r22, r17
    289a:	60 7f       	andi	r22, 0xF0	; 240
    289c:	80 e0       	ldi	r24, 0x00	; 0
    289e:	0e 94 65 0f 	call	0x1eca	; 0x1eca <DIO_voidSetPortValue>
    28a2:	81 e0       	ldi	r24, 0x01	; 1
    28a4:	63 e0       	ldi	r22, 0x03	; 3
    28a6:	41 e0       	ldi	r20, 0x01	; 1
    28a8:	0e 94 f6 0f 	call	0x1fec	; 0x1fec <DIO_voidSetPinValue>
    28ac:	b0 ea       	ldi	r27, 0xA0	; 160
    28ae:	eb 2e       	mov	r14, r27
    28b0:	bf e0       	ldi	r27, 0x0F	; 15
    28b2:	fb 2e       	mov	r15, r27
    28b4:	c7 01       	movw	r24, r14
    28b6:	01 97       	sbiw	r24, 0x01	; 1
    28b8:	f1 f7       	brne	.-4      	; 0x28b6 <CLCD_voidWriteCommend+0x3a>
    28ba:	81 e0       	ldi	r24, 0x01	; 1
    28bc:	63 e0       	ldi	r22, 0x03	; 3
    28be:	40 e0       	ldi	r20, 0x00	; 0
    28c0:	0e 94 f6 0f 	call	0x1fec	; 0x1fec <DIO_voidSetPinValue>
    28c4:	c7 01       	movw	r24, r14
    28c6:	01 97       	sbiw	r24, 0x01	; 1
    28c8:	f1 f7       	brne	.-4      	; 0x28c6 <CLCD_voidWriteCommend+0x4a>
    28ca:	12 95       	swap	r17
    28cc:	10 7f       	andi	r17, 0xF0	; 240
    28ce:	80 e0       	ldi	r24, 0x00	; 0
    28d0:	61 2f       	mov	r22, r17
    28d2:	0e 94 65 0f 	call	0x1eca	; 0x1eca <DIO_voidSetPortValue>
    28d6:	81 e0       	ldi	r24, 0x01	; 1
    28d8:	63 e0       	ldi	r22, 0x03	; 3
    28da:	41 e0       	ldi	r20, 0x01	; 1
    28dc:	0e 94 f6 0f 	call	0x1fec	; 0x1fec <DIO_voidSetPinValue>
    28e0:	c7 01       	movw	r24, r14
    28e2:	01 97       	sbiw	r24, 0x01	; 1
    28e4:	f1 f7       	brne	.-4      	; 0x28e2 <CLCD_voidWriteCommend+0x66>
    28e6:	81 e0       	ldi	r24, 0x01	; 1
    28e8:	63 e0       	ldi	r22, 0x03	; 3
    28ea:	40 e0       	ldi	r20, 0x00	; 0
    28ec:	0e 94 f6 0f 	call	0x1fec	; 0x1fec <DIO_voidSetPinValue>
    28f0:	c7 01       	movw	r24, r14
    28f2:	01 97       	sbiw	r24, 0x01	; 1
    28f4:	f1 f7       	brne	.-4      	; 0x28f2 <CLCD_voidWriteCommend+0x76>
    28f6:	1f 91       	pop	r17
    28f8:	ff 90       	pop	r15
    28fa:	ef 90       	pop	r14
    28fc:	08 95       	ret

000028fe <CLCD_voidSetPosition>:
    28fe:	81 30       	cpi	r24, 0x01	; 1
    2900:	29 f4       	brne	.+10     	; 0x290c <CLCD_voidSetPosition+0xe>
    2902:	86 2f       	mov	r24, r22
    2904:	81 58       	subi	r24, 0x81	; 129
    2906:	0e 94 3e 14 	call	0x287c	; 0x287c <CLCD_voidWriteCommend>
    290a:	08 95       	ret
    290c:	82 30       	cpi	r24, 0x02	; 2
    290e:	21 f4       	brne	.+8      	; 0x2918 <CLCD_voidSetPosition+0x1a>
    2910:	86 2f       	mov	r24, r22
    2912:	81 54       	subi	r24, 0x41	; 65
    2914:	0e 94 3e 14 	call	0x287c	; 0x287c <CLCD_voidWriteCommend>
    2918:	08 95       	ret

0000291a <CLCD_voidInit>:
    291a:	0f 93       	push	r16
    291c:	1f 93       	push	r17
    291e:	81 e0       	ldi	r24, 0x01	; 1
    2920:	61 e0       	ldi	r22, 0x01	; 1
    2922:	41 e0       	ldi	r20, 0x01	; 1
    2924:	0e 94 88 0f 	call	0x1f10	; 0x1f10 <DIO_voidSetPinDirection>
    2928:	81 e0       	ldi	r24, 0x01	; 1
    292a:	62 e0       	ldi	r22, 0x02	; 2
    292c:	41 e0       	ldi	r20, 0x01	; 1
    292e:	0e 94 88 0f 	call	0x1f10	; 0x1f10 <DIO_voidSetPinDirection>
    2932:	81 e0       	ldi	r24, 0x01	; 1
    2934:	63 e0       	ldi	r22, 0x03	; 3
    2936:	41 e0       	ldi	r20, 0x01	; 1
    2938:	0e 94 88 0f 	call	0x1f10	; 0x1f10 <DIO_voidSetPinDirection>
    293c:	84 ef       	ldi	r24, 0xF4	; 244
    293e:	91 e0       	ldi	r25, 0x01	; 1
    2940:	20 e9       	ldi	r18, 0x90	; 144
    2942:	31 e0       	ldi	r19, 0x01	; 1
    2944:	f9 01       	movw	r30, r18
    2946:	31 97       	sbiw	r30, 0x01	; 1
    2948:	f1 f7       	brne	.-4      	; 0x2946 <CLCD_voidInit+0x2c>
    294a:	01 97       	sbiw	r24, 0x01	; 1
    294c:	d9 f7       	brne	.-10     	; 0x2944 <CLCD_voidInit+0x2a>
    294e:	80 e0       	ldi	r24, 0x00	; 0
    2950:	60 ef       	ldi	r22, 0xF0	; 240
    2952:	0e 94 54 0f 	call	0x1ea8	; 0x1ea8 <DIO_voidSetPortDirection>
    2956:	82 e0       	ldi	r24, 0x02	; 2
    2958:	0e 94 3e 14 	call	0x287c	; 0x287c <CLCD_voidWriteCommend>
    295c:	88 e2       	ldi	r24, 0x28	; 40
    295e:	0e 94 3e 14 	call	0x287c	; 0x287c <CLCD_voidWriteCommend>
    2962:	00 ea       	ldi	r16, 0xA0	; 160
    2964:	1f e0       	ldi	r17, 0x0F	; 15
    2966:	c8 01       	movw	r24, r16
    2968:	01 97       	sbiw	r24, 0x01	; 1
    296a:	f1 f7       	brne	.-4      	; 0x2968 <CLCD_voidInit+0x4e>
    296c:	8c e0       	ldi	r24, 0x0C	; 12
    296e:	0e 94 3e 14 	call	0x287c	; 0x287c <CLCD_voidWriteCommend>
    2972:	c8 01       	movw	r24, r16
    2974:	01 97       	sbiw	r24, 0x01	; 1
    2976:	f1 f7       	brne	.-4      	; 0x2974 <CLCD_voidInit+0x5a>
    2978:	81 e0       	ldi	r24, 0x01	; 1
    297a:	0e 94 3e 14 	call	0x287c	; 0x287c <CLCD_voidWriteCommend>
    297e:	c8 01       	movw	r24, r16
    2980:	01 97       	sbiw	r24, 0x01	; 1
    2982:	f1 f7       	brne	.-4      	; 0x2980 <CLCD_voidInit+0x66>
    2984:	86 e0       	ldi	r24, 0x06	; 6
    2986:	0e 94 3e 14 	call	0x287c	; 0x287c <CLCD_voidWriteCommend>
    298a:	c8 01       	movw	r24, r16
    298c:	01 97       	sbiw	r24, 0x01	; 1
    298e:	f1 f7       	brne	.-4      	; 0x298c <CLCD_voidInit+0x72>
    2990:	1f 91       	pop	r17
    2992:	0f 91       	pop	r16
    2994:	08 95       	ret

00002996 <main>:
    2996:	1f 93       	push	r17
    2998:	82 e0       	ldi	r24, 0x02	; 2
    299a:	62 e0       	ldi	r22, 0x02	; 2
    299c:	41 e0       	ldi	r20, 0x01	; 1
    299e:	0e 94 88 0f 	call	0x1f10	; 0x1f10 <DIO_voidSetPinDirection>
    29a2:	83 e0       	ldi	r24, 0x03	; 3
    29a4:	61 e0       	ldi	r22, 0x01	; 1
    29a6:	41 e0       	ldi	r20, 0x01	; 1
    29a8:	0e 94 88 0f 	call	0x1f10	; 0x1f10 <DIO_voidSetPinDirection>
    29ac:	83 e0       	ldi	r24, 0x03	; 3
    29ae:	60 e0       	ldi	r22, 0x00	; 0
    29b0:	40 e0       	ldi	r20, 0x00	; 0
    29b2:	0e 94 88 0f 	call	0x1f10	; 0x1f10 <DIO_voidSetPinDirection>
    29b6:	0e 94 ad 0d 	call	0x1b5a	; 0x1b5a <UART_VoidInit>
    29ba:	0e 94 8b 0e 	call	0x1d16	; 0x1d16 <SPI_voidMasterInit>
    29be:	0e 94 ba 0d 	call	0x1b74	; 0x1b74 <UART_VoidRecieve>
    29c2:	18 2f       	mov	r17, r24
    29c4:	0e 94 62 0e 	call	0x1cc4	; 0x1cc4 <SPI_u8MasterTransmitReceive>
    29c8:	11 33       	cpi	r17, 0x31	; 49
    29ca:	21 f4       	brne	.+8      	; 0x29d4 <main+0x3e>
    29cc:	82 e0       	ldi	r24, 0x02	; 2
    29ce:	62 e0       	ldi	r22, 0x02	; 2
    29d0:	41 e0       	ldi	r20, 0x01	; 1
    29d2:	05 c0       	rjmp	.+10     	; 0x29de <main+0x48>
    29d4:	10 33       	cpi	r17, 0x30	; 48
    29d6:	99 f7       	brne	.-26     	; 0x29be <main+0x28>
    29d8:	82 e0       	ldi	r24, 0x02	; 2
    29da:	62 e0       	ldi	r22, 0x02	; 2
    29dc:	40 e0       	ldi	r20, 0x00	; 0
    29de:	0e 94 f6 0f 	call	0x1fec	; 0x1fec <DIO_voidSetPinValue>
    29e2:	ed cf       	rjmp	.-38     	; 0x29be <main+0x28>

000029e4 <__mulsi3>:
    29e4:	62 9f       	mul	r22, r18
    29e6:	d0 01       	movw	r26, r0
    29e8:	73 9f       	mul	r23, r19
    29ea:	f0 01       	movw	r30, r0
    29ec:	82 9f       	mul	r24, r18
    29ee:	e0 0d       	add	r30, r0
    29f0:	f1 1d       	adc	r31, r1
    29f2:	64 9f       	mul	r22, r20
    29f4:	e0 0d       	add	r30, r0
    29f6:	f1 1d       	adc	r31, r1
    29f8:	92 9f       	mul	r25, r18
    29fa:	f0 0d       	add	r31, r0
    29fc:	83 9f       	mul	r24, r19
    29fe:	f0 0d       	add	r31, r0
    2a00:	74 9f       	mul	r23, r20
    2a02:	f0 0d       	add	r31, r0
    2a04:	65 9f       	mul	r22, r21
    2a06:	f0 0d       	add	r31, r0
    2a08:	99 27       	eor	r25, r25
    2a0a:	72 9f       	mul	r23, r18
    2a0c:	b0 0d       	add	r27, r0
    2a0e:	e1 1d       	adc	r30, r1
    2a10:	f9 1f       	adc	r31, r25
    2a12:	63 9f       	mul	r22, r19
    2a14:	b0 0d       	add	r27, r0
    2a16:	e1 1d       	adc	r30, r1
    2a18:	f9 1f       	adc	r31, r25
    2a1a:	bd 01       	movw	r22, r26
    2a1c:	cf 01       	movw	r24, r30
    2a1e:	11 24       	eor	r1, r1
    2a20:	08 95       	ret

00002a22 <__udivmodsi4>:
    2a22:	a1 e2       	ldi	r26, 0x21	; 33
    2a24:	1a 2e       	mov	r1, r26
    2a26:	aa 1b       	sub	r26, r26
    2a28:	bb 1b       	sub	r27, r27
    2a2a:	fd 01       	movw	r30, r26
    2a2c:	0d c0       	rjmp	.+26     	; 0x2a48 <__udivmodsi4_ep>

00002a2e <__udivmodsi4_loop>:
    2a2e:	aa 1f       	adc	r26, r26
    2a30:	bb 1f       	adc	r27, r27
    2a32:	ee 1f       	adc	r30, r30
    2a34:	ff 1f       	adc	r31, r31
    2a36:	a2 17       	cp	r26, r18
    2a38:	b3 07       	cpc	r27, r19
    2a3a:	e4 07       	cpc	r30, r20
    2a3c:	f5 07       	cpc	r31, r21
    2a3e:	20 f0       	brcs	.+8      	; 0x2a48 <__udivmodsi4_ep>
    2a40:	a2 1b       	sub	r26, r18
    2a42:	b3 0b       	sbc	r27, r19
    2a44:	e4 0b       	sbc	r30, r20
    2a46:	f5 0b       	sbc	r31, r21

00002a48 <__udivmodsi4_ep>:
    2a48:	66 1f       	adc	r22, r22
    2a4a:	77 1f       	adc	r23, r23
    2a4c:	88 1f       	adc	r24, r24
    2a4e:	99 1f       	adc	r25, r25
    2a50:	1a 94       	dec	r1
    2a52:	69 f7       	brne	.-38     	; 0x2a2e <__udivmodsi4_loop>
    2a54:	60 95       	com	r22
    2a56:	70 95       	com	r23
    2a58:	80 95       	com	r24
    2a5a:	90 95       	com	r25
    2a5c:	9b 01       	movw	r18, r22
    2a5e:	ac 01       	movw	r20, r24
    2a60:	bd 01       	movw	r22, r26
    2a62:	cf 01       	movw	r24, r30
    2a64:	08 95       	ret

00002a66 <__prologue_saves__>:
    2a66:	2f 92       	push	r2
    2a68:	3f 92       	push	r3
    2a6a:	4f 92       	push	r4
    2a6c:	5f 92       	push	r5
    2a6e:	6f 92       	push	r6
    2a70:	7f 92       	push	r7
    2a72:	8f 92       	push	r8
    2a74:	9f 92       	push	r9
    2a76:	af 92       	push	r10
    2a78:	bf 92       	push	r11
    2a7a:	cf 92       	push	r12
    2a7c:	df 92       	push	r13
    2a7e:	ef 92       	push	r14
    2a80:	ff 92       	push	r15
    2a82:	0f 93       	push	r16
    2a84:	1f 93       	push	r17
    2a86:	cf 93       	push	r28
    2a88:	df 93       	push	r29
    2a8a:	cd b7       	in	r28, 0x3d	; 61
    2a8c:	de b7       	in	r29, 0x3e	; 62
    2a8e:	ca 1b       	sub	r28, r26
    2a90:	db 0b       	sbc	r29, r27
    2a92:	0f b6       	in	r0, 0x3f	; 63
    2a94:	f8 94       	cli
    2a96:	de bf       	out	0x3e, r29	; 62
    2a98:	0f be       	out	0x3f, r0	; 63
    2a9a:	cd bf       	out	0x3d, r28	; 61
    2a9c:	09 94       	ijmp

00002a9e <__epilogue_restores__>:
    2a9e:	2a 88       	ldd	r2, Y+18	; 0x12
    2aa0:	39 88       	ldd	r3, Y+17	; 0x11
    2aa2:	48 88       	ldd	r4, Y+16	; 0x10
    2aa4:	5f 84       	ldd	r5, Y+15	; 0x0f
    2aa6:	6e 84       	ldd	r6, Y+14	; 0x0e
    2aa8:	7d 84       	ldd	r7, Y+13	; 0x0d
    2aaa:	8c 84       	ldd	r8, Y+12	; 0x0c
    2aac:	9b 84       	ldd	r9, Y+11	; 0x0b
    2aae:	aa 84       	ldd	r10, Y+10	; 0x0a
    2ab0:	b9 84       	ldd	r11, Y+9	; 0x09
    2ab2:	c8 84       	ldd	r12, Y+8	; 0x08
    2ab4:	df 80       	ldd	r13, Y+7	; 0x07
    2ab6:	ee 80       	ldd	r14, Y+6	; 0x06
    2ab8:	fd 80       	ldd	r15, Y+5	; 0x05
    2aba:	0c 81       	ldd	r16, Y+4	; 0x04
    2abc:	1b 81       	ldd	r17, Y+3	; 0x03
    2abe:	aa 81       	ldd	r26, Y+2	; 0x02
    2ac0:	b9 81       	ldd	r27, Y+1	; 0x01
    2ac2:	ce 0f       	add	r28, r30
    2ac4:	d1 1d       	adc	r29, r1
    2ac6:	0f b6       	in	r0, 0x3f	; 63
    2ac8:	f8 94       	cli
    2aca:	de bf       	out	0x3e, r29	; 62
    2acc:	0f be       	out	0x3f, r0	; 63
    2ace:	cd bf       	out	0x3d, r28	; 61
    2ad0:	ed 01       	movw	r28, r26
    2ad2:	08 95       	ret

00002ad4 <_exit>:
    2ad4:	f8 94       	cli

00002ad6 <__stop_program>:
    2ad6:	ff cf       	rjmp	.-2      	; 0x2ad6 <__stop_program>
